
build/sparse_matrix:     file format elf32-littleriscv


Disassembly of section .text:

00010074 <register_fini>:
   10074:	ffff0797          	auipc	a5,0xffff0
   10078:	f8c78793          	addi	a5,a5,-116 # 0 <register_fini-0x10074>
   1007c:	00078863          	beqz	a5,1008c <register_fini+0x18>
   10080:	00000517          	auipc	a0,0x0
   10084:	3fc50513          	addi	a0,a0,1020 # 1047c <__libc_fini_array>
   10088:	3ac0006f          	j	10434 <atexit>
   1008c:	00008067          	ret

00010090 <_start>:
   10090:	00017197          	auipc	gp,0x17
   10094:	83018193          	addi	gp,gp,-2000 # 268c0 <__global_pointer$>
   10098:	1cc18513          	addi	a0,gp,460 # 26a8c <_edata>
   1009c:	22818613          	addi	a2,gp,552 # 26ae8 <__BSS_END__>
   100a0:	40a60633          	sub	a2,a2,a0
   100a4:	00000593          	li	a1,0
   100a8:	4c8000ef          	jal	ra,10570 <memset>
   100ac:	00000517          	auipc	a0,0x0
   100b0:	3d050513          	addi	a0,a0,976 # 1047c <__libc_fini_array>
   100b4:	380000ef          	jal	ra,10434 <atexit>
   100b8:	424000ef          	jal	ra,104dc <__libc_init_array>
   100bc:	00012503          	lw	a0,0(sp)
   100c0:	00410593          	addi	a1,sp,4
   100c4:	00000613          	li	a2,0
   100c8:	07c000ef          	jal	ra,10144 <main>
   100cc:	37c0006f          	j	10448 <exit>

000100d0 <__do_global_dtors_aux>:
   100d0:	1e01c783          	lbu	a5,480(gp) # 26aa0 <completed.5434>
   100d4:	04079463          	bnez	a5,1011c <__do_global_dtors_aux+0x4c>
   100d8:	ffff0797          	auipc	a5,0xffff0
   100dc:	f2878793          	addi	a5,a5,-216 # 0 <register_fini-0x10074>
   100e0:	02078863          	beqz	a5,10110 <__do_global_dtors_aux+0x40>
   100e4:	ff010113          	addi	sp,sp,-16
   100e8:	00016517          	auipc	a0,0x16
   100ec:	f1850513          	addi	a0,a0,-232 # 26000 <__EH_FRAME_BEGIN__>
   100f0:	00112623          	sw	ra,12(sp)
   100f4:	00000097          	auipc	ra,0x0
   100f8:	000000e7          	jalr	zero # 0 <register_fini-0x10074>
   100fc:	00c12083          	lw	ra,12(sp)
   10100:	00100793          	li	a5,1
   10104:	1ef18023          	sb	a5,480(gp) # 26aa0 <completed.5434>
   10108:	01010113          	addi	sp,sp,16
   1010c:	00008067          	ret
   10110:	00100793          	li	a5,1
   10114:	1ef18023          	sb	a5,480(gp) # 26aa0 <completed.5434>
   10118:	00008067          	ret
   1011c:	00008067          	ret

00010120 <frame_dummy>:
   10120:	ffff0797          	auipc	a5,0xffff0
   10124:	ee078793          	addi	a5,a5,-288 # 0 <register_fini-0x10074>
   10128:	00078c63          	beqz	a5,10140 <frame_dummy+0x20>
   1012c:	1e418593          	addi	a1,gp,484 # 26aa4 <object.5439>
   10130:	00016517          	auipc	a0,0x16
   10134:	ed050513          	addi	a0,a0,-304 # 26000 <__EH_FRAME_BEGIN__>
   10138:	00000317          	auipc	t1,0x0
   1013c:	00000067          	jr	zero # 0 <register_fini-0x10074>
   10140:	00008067          	ret

00010144 <main>:
   10144:	df010113          	addi	sp,sp,-528
   10148:	20112623          	sw	ra,524(sp)
   1014c:	20812423          	sw	s0,520(sp)
   10150:	20912223          	sw	s1,516(sp)
   10154:	21010413          	addi	s0,sp,528
   10158:	dea42e23          	sw	a0,-516(s0)
   1015c:	deb42c23          	sw	a1,-520(s0)
   10160:	000257b7          	lui	a5,0x25
   10164:	bd878793          	addi	a5,a5,-1064 # 24bd8 <__clzsi2+0x54>
   10168:	0007ae03          	lw	t3,0(a5)
   1016c:	0047a303          	lw	t1,4(a5)
   10170:	0087a883          	lw	a7,8(a5)
   10174:	00c7a803          	lw	a6,12(a5)
   10178:	0107a503          	lw	a0,16(a5)
   1017c:	0147a583          	lw	a1,20(a5)
   10180:	0187a603          	lw	a2,24(a5)
   10184:	01c7a683          	lw	a3,28(a5)
   10188:	0207a703          	lw	a4,32(a5)
   1018c:	0247a783          	lw	a5,36(a5)
   10190:	fdc42023          	sw	t3,-64(s0)
   10194:	fc642223          	sw	t1,-60(s0)
   10198:	fd142423          	sw	a7,-56(s0)
   1019c:	fd042623          	sw	a6,-52(s0)
   101a0:	fca42823          	sw	a0,-48(s0)
   101a4:	fcb42a23          	sw	a1,-44(s0)
   101a8:	fcc42c23          	sw	a2,-40(s0)
   101ac:	fcd42e23          	sw	a3,-36(s0)
   101b0:	fee42023          	sw	a4,-32(s0)
   101b4:	fef42223          	sw	a5,-28(s0)
   101b8:	000257b7          	lui	a5,0x25
   101bc:	c0078793          	addi	a5,a5,-1024 # 24c00 <__clzsi2+0x7c>
   101c0:	0007ae03          	lw	t3,0(a5)
   101c4:	0047a303          	lw	t1,4(a5)
   101c8:	0087a883          	lw	a7,8(a5)
   101cc:	00c7a803          	lw	a6,12(a5)
   101d0:	0107a503          	lw	a0,16(a5)
   101d4:	0147a583          	lw	a1,20(a5)
   101d8:	0187a603          	lw	a2,24(a5)
   101dc:	01c7a683          	lw	a3,28(a5)
   101e0:	0207a703          	lw	a4,32(a5)
   101e4:	0247a783          	lw	a5,36(a5)
   101e8:	f9c42c23          	sw	t3,-104(s0)
   101ec:	f8642e23          	sw	t1,-100(s0)
   101f0:	fb142023          	sw	a7,-96(s0)
   101f4:	fb042223          	sw	a6,-92(s0)
   101f8:	faa42423          	sw	a0,-88(s0)
   101fc:	fab42623          	sw	a1,-84(s0)
   10200:	fac42823          	sw	a2,-80(s0)
   10204:	fad42a23          	sw	a3,-76(s0)
   10208:	fae42c23          	sw	a4,-72(s0)
   1020c:	faf42e23          	sw	a5,-68(s0)
   10210:	e0840793          	addi	a5,s0,-504
   10214:	19000713          	li	a4,400
   10218:	00070613          	mv	a2,a4
   1021c:	00000593          	li	a1,0
   10220:	00078513          	mv	a0,a5
   10224:	34c000ef          	jal	ra,10570 <memset>
   10228:	fe042623          	sw	zero,-20(s0)
   1022c:	09c0006f          	j	102c8 <main+0x184>
   10230:	fe042423          	sw	zero,-24(s0)
   10234:	07c0006f          	j	102b0 <main+0x16c>
   10238:	fec42783          	lw	a5,-20(s0)
   1023c:	00279793          	slli	a5,a5,0x2
   10240:	ff040713          	addi	a4,s0,-16
   10244:	00f707b3          	add	a5,a4,a5
   10248:	fd07a683          	lw	a3,-48(a5)
   1024c:	fe842783          	lw	a5,-24(s0)
   10250:	00279793          	slli	a5,a5,0x2
   10254:	ff040713          	addi	a4,s0,-16
   10258:	00f707b3          	add	a5,a4,a5
   1025c:	fa87a603          	lw	a2,-88(a5)
   10260:	fec42703          	lw	a4,-20(s0)
   10264:	00070793          	mv	a5,a4
   10268:	00279793          	slli	a5,a5,0x2
   1026c:	00e787b3          	add	a5,a5,a4
   10270:	00179793          	slli	a5,a5,0x1
   10274:	00078713          	mv	a4,a5
   10278:	fe842783          	lw	a5,-24(s0)
   1027c:	00f704b3          	add	s1,a4,a5
   10280:	00060593          	mv	a1,a2
   10284:	00068513          	mv	a0,a3
   10288:	0d4000ef          	jal	ra,1035c <__mulsi3>
   1028c:	00050793          	mv	a5,a0
   10290:	00078713          	mv	a4,a5
   10294:	00249793          	slli	a5,s1,0x2
   10298:	ff040693          	addi	a3,s0,-16
   1029c:	00f687b3          	add	a5,a3,a5
   102a0:	e0e7ac23          	sw	a4,-488(a5)
   102a4:	fe842783          	lw	a5,-24(s0)
   102a8:	00178793          	addi	a5,a5,1
   102ac:	fef42423          	sw	a5,-24(s0)
   102b0:	fe842703          	lw	a4,-24(s0)
   102b4:	00900793          	li	a5,9
   102b8:	f8e7d0e3          	bge	a5,a4,10238 <main+0xf4>
   102bc:	fec42783          	lw	a5,-20(s0)
   102c0:	00178793          	addi	a5,a5,1
   102c4:	fef42623          	sw	a5,-20(s0)
   102c8:	fec42703          	lw	a4,-20(s0)
   102cc:	00900793          	li	a5,9
   102d0:	f6e7d0e3          	bge	a5,a4,10230 <main+0xec>
   102d4:	fe042623          	sw	zero,-20(s0)
   102d8:	05c0006f          	j	10334 <main+0x1f0>
   102dc:	fec42783          	lw	a5,-20(s0)
   102e0:	00279793          	slli	a5,a5,0x2
   102e4:	ff040713          	addi	a4,s0,-16
   102e8:	00f707b3          	add	a5,a4,a5
   102ec:	e187a783          	lw	a5,-488(a5)
   102f0:	00078593          	mv	a1,a5
   102f4:	000257b7          	lui	a5,0x25
   102f8:	bd078513          	addi	a0,a5,-1072 # 24bd0 <__clzsi2+0x4c>
   102fc:	394000ef          	jal	ra,10690 <printf>
   10300:	fec42783          	lw	a5,-20(s0)
   10304:	00a00593          	li	a1,10
   10308:	00078513          	mv	a0,a5
   1030c:	0f8000ef          	jal	ra,10404 <__modsi3>
   10310:	00050793          	mv	a5,a0
   10314:	00078713          	mv	a4,a5
   10318:	00900793          	li	a5,9
   1031c:	00f71663          	bne	a4,a5,10328 <main+0x1e4>
   10320:	00a00513          	li	a0,10
   10324:	3c8000ef          	jal	ra,106ec <putchar>
   10328:	fec42783          	lw	a5,-20(s0)
   1032c:	00178793          	addi	a5,a5,1
   10330:	fef42623          	sw	a5,-20(s0)
   10334:	fec42703          	lw	a4,-20(s0)
   10338:	06300793          	li	a5,99
   1033c:	fae7d0e3          	bge	a5,a4,102dc <main+0x198>
   10340:	00000793          	li	a5,0
   10344:	00078513          	mv	a0,a5
   10348:	20c12083          	lw	ra,524(sp)
   1034c:	20812403          	lw	s0,520(sp)
   10350:	20412483          	lw	s1,516(sp)
   10354:	21010113          	addi	sp,sp,528
   10358:	00008067          	ret

0001035c <__mulsi3>:
   1035c:	00050613          	mv	a2,a0
   10360:	00000513          	li	a0,0
   10364:	0015f693          	andi	a3,a1,1
   10368:	00068463          	beqz	a3,10370 <__mulsi3+0x14>
   1036c:	00c50533          	add	a0,a0,a2
   10370:	0015d593          	srli	a1,a1,0x1
   10374:	00161613          	slli	a2,a2,0x1
   10378:	fe0596e3          	bnez	a1,10364 <__mulsi3+0x8>
   1037c:	00008067          	ret

00010380 <__divsi3>:
   10380:	06054063          	bltz	a0,103e0 <__umodsi3+0x10>
   10384:	0605c663          	bltz	a1,103f0 <__umodsi3+0x20>

00010388 <__udivsi3>:
   10388:	00058613          	mv	a2,a1
   1038c:	00050593          	mv	a1,a0
   10390:	fff00513          	li	a0,-1
   10394:	02060c63          	beqz	a2,103cc <__udivsi3+0x44>
   10398:	00100693          	li	a3,1
   1039c:	00b67a63          	bgeu	a2,a1,103b0 <__udivsi3+0x28>
   103a0:	00c05863          	blez	a2,103b0 <__udivsi3+0x28>
   103a4:	00161613          	slli	a2,a2,0x1
   103a8:	00169693          	slli	a3,a3,0x1
   103ac:	feb66ae3          	bltu	a2,a1,103a0 <__udivsi3+0x18>
   103b0:	00000513          	li	a0,0
   103b4:	00c5e663          	bltu	a1,a2,103c0 <__udivsi3+0x38>
   103b8:	40c585b3          	sub	a1,a1,a2
   103bc:	00d56533          	or	a0,a0,a3
   103c0:	0016d693          	srli	a3,a3,0x1
   103c4:	00165613          	srli	a2,a2,0x1
   103c8:	fe0696e3          	bnez	a3,103b4 <__udivsi3+0x2c>
   103cc:	00008067          	ret

000103d0 <__umodsi3>:
   103d0:	00008293          	mv	t0,ra
   103d4:	fb5ff0ef          	jal	ra,10388 <__udivsi3>
   103d8:	00058513          	mv	a0,a1
   103dc:	00028067          	jr	t0
   103e0:	40a00533          	neg	a0,a0
   103e4:	0005d863          	bgez	a1,103f4 <__umodsi3+0x24>
   103e8:	40b005b3          	neg	a1,a1
   103ec:	f9dff06f          	j	10388 <__udivsi3>
   103f0:	40b005b3          	neg	a1,a1
   103f4:	00008293          	mv	t0,ra
   103f8:	f91ff0ef          	jal	ra,10388 <__udivsi3>
   103fc:	40a00533          	neg	a0,a0
   10400:	00028067          	jr	t0

00010404 <__modsi3>:
   10404:	00008293          	mv	t0,ra
   10408:	0005ca63          	bltz	a1,1041c <__modsi3+0x18>
   1040c:	00054c63          	bltz	a0,10424 <__modsi3+0x20>
   10410:	f79ff0ef          	jal	ra,10388 <__udivsi3>
   10414:	00058513          	mv	a0,a1
   10418:	00028067          	jr	t0
   1041c:	40b005b3          	neg	a1,a1
   10420:	fe0558e3          	bgez	a0,10410 <__modsi3+0xc>
   10424:	40a00533          	neg	a0,a0
   10428:	f61ff0ef          	jal	ra,10388 <__udivsi3>
   1042c:	40b00533          	neg	a0,a1
   10430:	00028067          	jr	t0

00010434 <atexit>:
   10434:	00050593          	mv	a1,a0
   10438:	00000693          	li	a3,0
   1043c:	00000613          	li	a2,0
   10440:	00000513          	li	a0,0
   10444:	2bc0306f          	j	13700 <__register_exitproc>

00010448 <exit>:
   10448:	ff010113          	addi	sp,sp,-16
   1044c:	00000593          	li	a1,0
   10450:	00812423          	sw	s0,8(sp)
   10454:	00112623          	sw	ra,12(sp)
   10458:	00050413          	mv	s0,a0
   1045c:	340030ef          	jal	ra,1379c <__call_exitprocs>
   10460:	1b818793          	addi	a5,gp,440 # 26a78 <_global_impure_ptr>
   10464:	0007a503          	lw	a0,0(a5)
   10468:	03c52783          	lw	a5,60(a0)
   1046c:	00078463          	beqz	a5,10474 <exit+0x2c>
   10470:	000780e7          	jalr	a5
   10474:	00040513          	mv	a0,s0
   10478:	6600f0ef          	jal	ra,1fad8 <_exit>

0001047c <__libc_fini_array>:
   1047c:	ff010113          	addi	sp,sp,-16
   10480:	00812423          	sw	s0,8(sp)
   10484:	00016797          	auipc	a5,0x16
   10488:	c3878793          	addi	a5,a5,-968 # 260bc <__init_array_end>
   1048c:	00016417          	auipc	s0,0x16
   10490:	c3440413          	addi	s0,s0,-972 # 260c0 <__fini_array_end>
   10494:	40f40433          	sub	s0,s0,a5
   10498:	00112623          	sw	ra,12(sp)
   1049c:	00912223          	sw	s1,4(sp)
   104a0:	40245413          	srai	s0,s0,0x2
   104a4:	02040263          	beqz	s0,104c8 <__libc_fini_array+0x4c>
   104a8:	00241493          	slli	s1,s0,0x2
   104ac:	ffc48493          	addi	s1,s1,-4
   104b0:	00f484b3          	add	s1,s1,a5
   104b4:	0004a783          	lw	a5,0(s1)
   104b8:	fff40413          	addi	s0,s0,-1
   104bc:	ffc48493          	addi	s1,s1,-4
   104c0:	000780e7          	jalr	a5
   104c4:	fe0418e3          	bnez	s0,104b4 <__libc_fini_array+0x38>
   104c8:	00c12083          	lw	ra,12(sp)
   104cc:	00812403          	lw	s0,8(sp)
   104d0:	00412483          	lw	s1,4(sp)
   104d4:	01010113          	addi	sp,sp,16
   104d8:	00008067          	ret

000104dc <__libc_init_array>:
   104dc:	ff010113          	addi	sp,sp,-16
   104e0:	00812423          	sw	s0,8(sp)
   104e4:	01212023          	sw	s2,0(sp)
   104e8:	00016417          	auipc	s0,0x16
   104ec:	bcc40413          	addi	s0,s0,-1076 # 260b4 <__init_array_start>
   104f0:	00016917          	auipc	s2,0x16
   104f4:	bc490913          	addi	s2,s2,-1084 # 260b4 <__init_array_start>
   104f8:	40890933          	sub	s2,s2,s0
   104fc:	00112623          	sw	ra,12(sp)
   10500:	00912223          	sw	s1,4(sp)
   10504:	40295913          	srai	s2,s2,0x2
   10508:	00090e63          	beqz	s2,10524 <__libc_init_array+0x48>
   1050c:	00000493          	li	s1,0
   10510:	00042783          	lw	a5,0(s0)
   10514:	00148493          	addi	s1,s1,1
   10518:	00440413          	addi	s0,s0,4
   1051c:	000780e7          	jalr	a5
   10520:	fe9918e3          	bne	s2,s1,10510 <__libc_init_array+0x34>
   10524:	00016417          	auipc	s0,0x16
   10528:	b9040413          	addi	s0,s0,-1136 # 260b4 <__init_array_start>
   1052c:	00016917          	auipc	s2,0x16
   10530:	b9090913          	addi	s2,s2,-1136 # 260bc <__init_array_end>
   10534:	40890933          	sub	s2,s2,s0
   10538:	40295913          	srai	s2,s2,0x2
   1053c:	00090e63          	beqz	s2,10558 <__libc_init_array+0x7c>
   10540:	00000493          	li	s1,0
   10544:	00042783          	lw	a5,0(s0)
   10548:	00148493          	addi	s1,s1,1
   1054c:	00440413          	addi	s0,s0,4
   10550:	000780e7          	jalr	a5
   10554:	fe9918e3          	bne	s2,s1,10544 <__libc_init_array+0x68>
   10558:	00c12083          	lw	ra,12(sp)
   1055c:	00812403          	lw	s0,8(sp)
   10560:	00412483          	lw	s1,4(sp)
   10564:	00012903          	lw	s2,0(sp)
   10568:	01010113          	addi	sp,sp,16
   1056c:	00008067          	ret

00010570 <memset>:
   10570:	00f00313          	li	t1,15
   10574:	00050713          	mv	a4,a0
   10578:	02c37e63          	bgeu	t1,a2,105b4 <memset+0x44>
   1057c:	00f77793          	andi	a5,a4,15
   10580:	0a079063          	bnez	a5,10620 <memset+0xb0>
   10584:	08059263          	bnez	a1,10608 <memset+0x98>
   10588:	ff067693          	andi	a3,a2,-16
   1058c:	00f67613          	andi	a2,a2,15
   10590:	00e686b3          	add	a3,a3,a4
   10594:	00b72023          	sw	a1,0(a4)
   10598:	00b72223          	sw	a1,4(a4)
   1059c:	00b72423          	sw	a1,8(a4)
   105a0:	00b72623          	sw	a1,12(a4)
   105a4:	01070713          	addi	a4,a4,16
   105a8:	fed766e3          	bltu	a4,a3,10594 <memset+0x24>
   105ac:	00061463          	bnez	a2,105b4 <memset+0x44>
   105b0:	00008067          	ret
   105b4:	40c306b3          	sub	a3,t1,a2
   105b8:	00269693          	slli	a3,a3,0x2
   105bc:	00000297          	auipc	t0,0x0
   105c0:	005686b3          	add	a3,a3,t0
   105c4:	00c68067          	jr	12(a3)
   105c8:	00b70723          	sb	a1,14(a4)
   105cc:	00b706a3          	sb	a1,13(a4)
   105d0:	00b70623          	sb	a1,12(a4)
   105d4:	00b705a3          	sb	a1,11(a4)
   105d8:	00b70523          	sb	a1,10(a4)
   105dc:	00b704a3          	sb	a1,9(a4)
   105e0:	00b70423          	sb	a1,8(a4)
   105e4:	00b703a3          	sb	a1,7(a4)
   105e8:	00b70323          	sb	a1,6(a4)
   105ec:	00b702a3          	sb	a1,5(a4)
   105f0:	00b70223          	sb	a1,4(a4)
   105f4:	00b701a3          	sb	a1,3(a4)
   105f8:	00b70123          	sb	a1,2(a4)
   105fc:	00b700a3          	sb	a1,1(a4)
   10600:	00b70023          	sb	a1,0(a4)
   10604:	00008067          	ret
   10608:	0ff5f593          	andi	a1,a1,255
   1060c:	00859693          	slli	a3,a1,0x8
   10610:	00d5e5b3          	or	a1,a1,a3
   10614:	01059693          	slli	a3,a1,0x10
   10618:	00d5e5b3          	or	a1,a1,a3
   1061c:	f6dff06f          	j	10588 <memset+0x18>
   10620:	00279693          	slli	a3,a5,0x2
   10624:	00000297          	auipc	t0,0x0
   10628:	005686b3          	add	a3,a3,t0
   1062c:	00008293          	mv	t0,ra
   10630:	fa0680e7          	jalr	-96(a3)
   10634:	00028093          	mv	ra,t0
   10638:	ff078793          	addi	a5,a5,-16
   1063c:	40f70733          	sub	a4,a4,a5
   10640:	00f60633          	add	a2,a2,a5
   10644:	f6c378e3          	bgeu	t1,a2,105b4 <memset+0x44>
   10648:	f3dff06f          	j	10584 <memset+0x14>

0001064c <_printf_r>:
   1064c:	fc010113          	addi	sp,sp,-64
   10650:	02c12423          	sw	a2,40(sp)
   10654:	02d12623          	sw	a3,44(sp)
   10658:	02f12a23          	sw	a5,52(sp)
   1065c:	02e12823          	sw	a4,48(sp)
   10660:	03012c23          	sw	a6,56(sp)
   10664:	03112e23          	sw	a7,60(sp)
   10668:	00058613          	mv	a2,a1
   1066c:	00852583          	lw	a1,8(a0)
   10670:	02810793          	addi	a5,sp,40
   10674:	00078693          	mv	a3,a5
   10678:	00112e23          	sw	ra,28(sp)
   1067c:	00f12623          	sw	a5,12(sp)
   10680:	1bc000ef          	jal	ra,1083c <_vfprintf_r>
   10684:	01c12083          	lw	ra,28(sp)
   10688:	04010113          	addi	sp,sp,64
   1068c:	00008067          	ret

00010690 <printf>:
   10690:	1c018313          	addi	t1,gp,448 # 26a80 <_impure_ptr>
   10694:	00032303          	lw	t1,0(t1) # 10138 <frame_dummy+0x18>
   10698:	fc010113          	addi	sp,sp,-64
   1069c:	02c12423          	sw	a2,40(sp)
   106a0:	02d12623          	sw	a3,44(sp)
   106a4:	02f12a23          	sw	a5,52(sp)
   106a8:	02b12223          	sw	a1,36(sp)
   106ac:	02e12823          	sw	a4,48(sp)
   106b0:	03012c23          	sw	a6,56(sp)
   106b4:	03112e23          	sw	a7,60(sp)
   106b8:	00832583          	lw	a1,8(t1)
   106bc:	02410793          	addi	a5,sp,36
   106c0:	00050613          	mv	a2,a0
   106c4:	00078693          	mv	a3,a5
   106c8:	00030513          	mv	a0,t1
   106cc:	00112e23          	sw	ra,28(sp)
   106d0:	00f12623          	sw	a5,12(sp)
   106d4:	168000ef          	jal	ra,1083c <_vfprintf_r>
   106d8:	01c12083          	lw	ra,28(sp)
   106dc:	04010113          	addi	sp,sp,64
   106e0:	00008067          	ret

000106e4 <_putchar_r>:
   106e4:	00852603          	lw	a2,8(a0)
   106e8:	01c0006f          	j	10704 <_putc_r>

000106ec <putchar>:
   106ec:	1c018793          	addi	a5,gp,448 # 26a80 <_impure_ptr>
   106f0:	0007a783          	lw	a5,0(a5)
   106f4:	00050593          	mv	a1,a0
   106f8:	0087a603          	lw	a2,8(a5)
   106fc:	00078513          	mv	a0,a5
   10700:	0040006f          	j	10704 <_putc_r>

00010704 <_putc_r>:
   10704:	fe010113          	addi	sp,sp,-32
   10708:	00812c23          	sw	s0,24(sp)
   1070c:	00112e23          	sw	ra,28(sp)
   10710:	00050413          	mv	s0,a0
   10714:	00050663          	beqz	a0,10720 <_putc_r+0x1c>
   10718:	03852783          	lw	a5,56(a0)
   1071c:	04078663          	beqz	a5,10768 <_putc_r+0x64>
   10720:	00862783          	lw	a5,8(a2)
   10724:	fff78793          	addi	a5,a5,-1
   10728:	00f62423          	sw	a5,8(a2)
   1072c:	0007dc63          	bgez	a5,10744 <_putc_r+0x40>
   10730:	01862703          	lw	a4,24(a2)
   10734:	04e7c663          	blt	a5,a4,10780 <_putc_r+0x7c>
   10738:	0ff5f793          	andi	a5,a1,255
   1073c:	00a00713          	li	a4,10
   10740:	04e78063          	beq	a5,a4,10780 <_putc_r+0x7c>
   10744:	00062783          	lw	a5,0(a2)
   10748:	0ff5f513          	andi	a0,a1,255
   1074c:	00178713          	addi	a4,a5,1
   10750:	00e62023          	sw	a4,0(a2)
   10754:	00b78023          	sb	a1,0(a5)
   10758:	01c12083          	lw	ra,28(sp)
   1075c:	01812403          	lw	s0,24(sp)
   10760:	02010113          	addi	sp,sp,32
   10764:	00008067          	ret
   10768:	00c12623          	sw	a2,12(sp)
   1076c:	00b12423          	sw	a1,8(sp)
   10770:	75c030ef          	jal	ra,13ecc <__sinit>
   10774:	00c12603          	lw	a2,12(sp)
   10778:	00812583          	lw	a1,8(sp)
   1077c:	fa5ff06f          	j	10720 <_putc_r+0x1c>
   10780:	00040513          	mv	a0,s0
   10784:	01812403          	lw	s0,24(sp)
   10788:	01c12083          	lw	ra,28(sp)
   1078c:	02010113          	addi	sp,sp,32
   10790:	4710206f          	j	13400 <__swbuf_r>

00010794 <putc>:
   10794:	fe010113          	addi	sp,sp,-32
   10798:	1c018793          	addi	a5,gp,448 # 26a80 <_impure_ptr>
   1079c:	00812c23          	sw	s0,24(sp)
   107a0:	0007a403          	lw	s0,0(a5)
   107a4:	00912a23          	sw	s1,20(sp)
   107a8:	00112e23          	sw	ra,28(sp)
   107ac:	00050493          	mv	s1,a0
   107b0:	00040663          	beqz	s0,107bc <putc+0x28>
   107b4:	03842783          	lw	a5,56(s0)
   107b8:	04078863          	beqz	a5,10808 <putc+0x74>
   107bc:	0085a783          	lw	a5,8(a1)
   107c0:	fff78793          	addi	a5,a5,-1
   107c4:	00f5a423          	sw	a5,8(a1)
   107c8:	0007dc63          	bgez	a5,107e0 <putc+0x4c>
   107cc:	0185a703          	lw	a4,24(a1)
   107d0:	04e7c663          	blt	a5,a4,1081c <putc+0x88>
   107d4:	0ff4f793          	andi	a5,s1,255
   107d8:	00a00713          	li	a4,10
   107dc:	04e78063          	beq	a5,a4,1081c <putc+0x88>
   107e0:	0005a783          	lw	a5,0(a1)
   107e4:	0ff4f513          	andi	a0,s1,255
   107e8:	00178713          	addi	a4,a5,1
   107ec:	00e5a023          	sw	a4,0(a1)
   107f0:	00978023          	sb	s1,0(a5)
   107f4:	01c12083          	lw	ra,28(sp)
   107f8:	01812403          	lw	s0,24(sp)
   107fc:	01412483          	lw	s1,20(sp)
   10800:	02010113          	addi	sp,sp,32
   10804:	00008067          	ret
   10808:	00040513          	mv	a0,s0
   1080c:	00b12623          	sw	a1,12(sp)
   10810:	6bc030ef          	jal	ra,13ecc <__sinit>
   10814:	00c12583          	lw	a1,12(sp)
   10818:	fa5ff06f          	j	107bc <putc+0x28>
   1081c:	00040513          	mv	a0,s0
   10820:	01812403          	lw	s0,24(sp)
   10824:	01c12083          	lw	ra,28(sp)
   10828:	00058613          	mv	a2,a1
   1082c:	00048593          	mv	a1,s1
   10830:	01412483          	lw	s1,20(sp)
   10834:	02010113          	addi	sp,sp,32
   10838:	3c90206f          	j	13400 <__swbuf_r>

0001083c <_vfprintf_r>:
   1083c:	e1010113          	addi	sp,sp,-496
   10840:	1e112623          	sw	ra,492(sp)
   10844:	1e812423          	sw	s0,488(sp)
   10848:	1d912223          	sw	s9,452(sp)
   1084c:	00b12223          	sw	a1,4(sp)
   10850:	00060c93          	mv	s9,a2
   10854:	00d12623          	sw	a3,12(sp)
   10858:	1e912223          	sw	s1,484(sp)
   1085c:	1f212023          	sw	s2,480(sp)
   10860:	1d312e23          	sw	s3,476(sp)
   10864:	1d412c23          	sw	s4,472(sp)
   10868:	1d512a23          	sw	s5,468(sp)
   1086c:	1d612823          	sw	s6,464(sp)
   10870:	1d712623          	sw	s7,460(sp)
   10874:	1d812423          	sw	s8,456(sp)
   10878:	1da12023          	sw	s10,448(sp)
   1087c:	1bb12e23          	sw	s11,444(sp)
   10880:	00050413          	mv	s0,a0
   10884:	00a12e23          	sw	a0,28(sp)
   10888:	798060ef          	jal	ra,17020 <_localeconv_r>
   1088c:	00052783          	lw	a5,0(a0)
   10890:	00078513          	mv	a0,a5
   10894:	02f12823          	sw	a5,48(sp)
   10898:	169080ef          	jal	ra,19200 <strlen>
   1089c:	02a12423          	sw	a0,40(sp)
   108a0:	0e012823          	sw	zero,240(sp)
   108a4:	0e012a23          	sw	zero,244(sp)
   108a8:	0e012c23          	sw	zero,248(sp)
   108ac:	0e012e23          	sw	zero,252(sp)
   108b0:	00040663          	beqz	s0,108bc <_vfprintf_r+0x80>
   108b4:	03842783          	lw	a5,56(s0)
   108b8:	56078ae3          	beqz	a5,1162c <_vfprintf_r+0xdf0>
   108bc:	00412603          	lw	a2,4(sp)
   108c0:	00c61703          	lh	a4,12(a2)
   108c4:	01071793          	slli	a5,a4,0x10
   108c8:	0107d793          	srli	a5,a5,0x10
   108cc:	01279693          	slli	a3,a5,0x12
   108d0:	0206c663          	bltz	a3,108fc <_vfprintf_r+0xc0>
   108d4:	06462683          	lw	a3,100(a2)
   108d8:	000027b7          	lui	a5,0x2
   108dc:	00f767b3          	or	a5,a4,a5
   108e0:	ffffe737          	lui	a4,0xffffe
   108e4:	fff70713          	addi	a4,a4,-1 # ffffdfff <__BSS_END__+0xfffd7517>
   108e8:	00e6f733          	and	a4,a3,a4
   108ec:	00f61623          	sh	a5,12(a2)
   108f0:	01079793          	slli	a5,a5,0x10
   108f4:	06e62223          	sw	a4,100(a2)
   108f8:	0107d793          	srli	a5,a5,0x10
   108fc:	0087f713          	andi	a4,a5,8
   10900:	16070463          	beqz	a4,10a68 <_vfprintf_r+0x22c>
   10904:	00412703          	lw	a4,4(sp)
   10908:	01072703          	lw	a4,16(a4)
   1090c:	14070e63          	beqz	a4,10a68 <_vfprintf_r+0x22c>
   10910:	01a7f793          	andi	a5,a5,26
   10914:	00a00713          	li	a4,10
   10918:	16e78c63          	beq	a5,a4,10a90 <_vfprintf_r+0x254>
   1091c:	10c10793          	addi	a5,sp,268
   10920:	000c8d13          	mv	s10,s9
   10924:	0ef12223          	sw	a5,228(sp)
   10928:	00078d93          	mv	s11,a5
   1092c:	000d4783          	lbu	a5,0(s10)
   10930:	0e012623          	sw	zero,236(sp)
   10934:	0e012423          	sw	zero,232(sp)
   10938:	00012c23          	sw	zero,24(sp)
   1093c:	02012623          	sw	zero,44(sp)
   10940:	02012c23          	sw	zero,56(sp)
   10944:	02012e23          	sw	zero,60(sp)
   10948:	04012023          	sw	zero,64(sp)
   1094c:	04012223          	sw	zero,68(sp)
   10950:	00012423          	sw	zero,8(sp)
   10954:	01000c13          	li	s8,16
   10958:	01c12a83          	lw	s5,28(sp)
   1095c:	3e078463          	beqz	a5,10d44 <_vfprintf_r+0x508>
   10960:	02500713          	li	a4,37
   10964:	00e79463          	bne	a5,a4,1096c <_vfprintf_r+0x130>
   10968:	7340106f          	j	1209c <_vfprintf_r+0x1860>
   1096c:	000d0413          	mv	s0,s10
   10970:	00c0006f          	j	1097c <_vfprintf_r+0x140>
   10974:	14e78263          	beq	a5,a4,10ab8 <_vfprintf_r+0x27c>
   10978:	00048413          	mv	s0,s1
   1097c:	00144783          	lbu	a5,1(s0)
   10980:	00140493          	addi	s1,s0,1
   10984:	fe0798e3          	bnez	a5,10974 <_vfprintf_r+0x138>
   10988:	41a48933          	sub	s2,s1,s10
   1098c:	3a090c63          	beqz	s2,10d44 <_vfprintf_r+0x508>
   10990:	0ec12703          	lw	a4,236(sp)
   10994:	0e812783          	lw	a5,232(sp)
   10998:	01ada023          	sw	s10,0(s11)
   1099c:	01270733          	add	a4,a4,s2
   109a0:	00178793          	addi	a5,a5,1 # 2001 <register_fini-0xe073>
   109a4:	012da223          	sw	s2,4(s11)
   109a8:	0ee12623          	sw	a4,236(sp)
   109ac:	0ef12423          	sw	a5,232(sp)
   109b0:	00700713          	li	a4,7
   109b4:	008d8d93          	addi	s11,s11,8
   109b8:	10f74663          	blt	a4,a5,10ac4 <_vfprintf_r+0x288>
   109bc:	00812703          	lw	a4,8(sp)
   109c0:	00144783          	lbu	a5,1(s0)
   109c4:	01270733          	add	a4,a4,s2
   109c8:	00e12423          	sw	a4,8(sp)
   109cc:	36078c63          	beqz	a5,10d44 <_vfprintf_r+0x508>
   109d0:	00148913          	addi	s2,s1,1
   109d4:	0014c403          	lbu	s0,1(s1)
   109d8:	0c0103a3          	sb	zero,199(sp)
   109dc:	fff00b13          	li	s6,-1
   109e0:	00000493          	li	s1,0
   109e4:	00000993          	li	s3,0
   109e8:	00900a13          	li	s4,9
   109ec:	02a00b93          	li	s7,42
   109f0:	00190913          	addi	s2,s2,1
   109f4:	05a00713          	li	a4,90
   109f8:	fe040793          	addi	a5,s0,-32
   109fc:	22f76c63          	bltu	a4,a5,10c34 <_vfprintf_r+0x3f8>
   10a00:	00014697          	auipc	a3,0x14
   10a04:	22868693          	addi	a3,a3,552 # 24c28 <__clzsi2+0xa4>
   10a08:	00279793          	slli	a5,a5,0x2
   10a0c:	00d787b3          	add	a5,a5,a3
   10a10:	0007a783          	lw	a5,0(a5)
   10a14:	00d787b3          	add	a5,a5,a3
   10a18:	00078067          	jr	a5
   10a1c:	000a8513          	mv	a0,s5
   10a20:	600060ef          	jal	ra,17020 <_localeconv_r>
   10a24:	00452783          	lw	a5,4(a0)
   10a28:	00078513          	mv	a0,a5
   10a2c:	04f12223          	sw	a5,68(sp)
   10a30:	7d0080ef          	jal	ra,19200 <strlen>
   10a34:	04a12023          	sw	a0,64(sp)
   10a38:	00050413          	mv	s0,a0
   10a3c:	000a8513          	mv	a0,s5
   10a40:	5e0060ef          	jal	ra,17020 <_localeconv_r>
   10a44:	00852783          	lw	a5,8(a0)
   10a48:	02f12e23          	sw	a5,60(sp)
   10a4c:	00040463          	beqz	s0,10a54 <_vfprintf_r+0x218>
   10a50:	4ec0106f          	j	11f3c <_vfprintf_r+0x1700>
   10a54:	00094403          	lbu	s0,0(s2)
   10a58:	f99ff06f          	j	109f0 <_vfprintf_r+0x1b4>
   10a5c:	0209e993          	ori	s3,s3,32
   10a60:	00094403          	lbu	s0,0(s2)
   10a64:	f8dff06f          	j	109f0 <_vfprintf_r+0x1b4>
   10a68:	00412583          	lw	a1,4(sp)
   10a6c:	01c12503          	lw	a0,28(sp)
   10a70:	329020ef          	jal	ra,13598 <__swsetup_r>
   10a74:	00050463          	beqz	a0,10a7c <_vfprintf_r+0x240>
   10a78:	4380206f          	j	12eb0 <_vfprintf_r+0x2674>
   10a7c:	00412783          	lw	a5,4(sp)
   10a80:	00a00713          	li	a4,10
   10a84:	00c7d783          	lhu	a5,12(a5)
   10a88:	01a7f793          	andi	a5,a5,26
   10a8c:	e8e798e3          	bne	a5,a4,1091c <_vfprintf_r+0xe0>
   10a90:	00412783          	lw	a5,4(sp)
   10a94:	00e79783          	lh	a5,14(a5)
   10a98:	e807c2e3          	bltz	a5,1091c <_vfprintf_r+0xe0>
   10a9c:	00c12683          	lw	a3,12(sp)
   10aa0:	00412583          	lw	a1,4(sp)
   10aa4:	01c12503          	lw	a0,28(sp)
   10aa8:	000c8613          	mv	a2,s9
   10aac:	095020ef          	jal	ra,13340 <__sbprintf>
   10ab0:	00a12423          	sw	a0,8(sp)
   10ab4:	0680006f          	j	10b1c <_vfprintf_r+0x2e0>
   10ab8:	41a48933          	sub	s2,s1,s10
   10abc:	f0090ae3          	beqz	s2,109d0 <_vfprintf_r+0x194>
   10ac0:	ed1ff06f          	j	10990 <_vfprintf_r+0x154>
   10ac4:	00412583          	lw	a1,4(sp)
   10ac8:	0e410613          	addi	a2,sp,228
   10acc:	000a8513          	mv	a0,s5
   10ad0:	4100b0ef          	jal	ra,1bee0 <__sprint_r>
   10ad4:	02051a63          	bnez	a0,10b08 <_vfprintf_r+0x2cc>
   10ad8:	10c10d93          	addi	s11,sp,268
   10adc:	ee1ff06f          	j	109bc <_vfprintf_r+0x180>
   10ae0:	00412583          	lw	a1,4(sp)
   10ae4:	0e410613          	addi	a2,sp,228
   10ae8:	000a8513          	mv	a0,s5
   10aec:	3f40b0ef          	jal	ra,1bee0 <__sprint_r>
   10af0:	52050063          	beqz	a0,11010 <_vfprintf_r+0x7d4>
   10af4:	01012783          	lw	a5,16(sp)
   10af8:	00078863          	beqz	a5,10b08 <_vfprintf_r+0x2cc>
   10afc:	01c12503          	lw	a0,28(sp)
   10b00:	00078593          	mv	a1,a5
   10b04:	538030ef          	jal	ra,1403c <_free_r>
   10b08:	00412783          	lw	a5,4(sp)
   10b0c:	00c7d783          	lhu	a5,12(a5)
   10b10:	0407f793          	andi	a5,a5,64
   10b14:	00078463          	beqz	a5,10b1c <_vfprintf_r+0x2e0>
   10b18:	3980206f          	j	12eb0 <_vfprintf_r+0x2674>
   10b1c:	1ec12083          	lw	ra,492(sp)
   10b20:	1e812403          	lw	s0,488(sp)
   10b24:	00812503          	lw	a0,8(sp)
   10b28:	1e412483          	lw	s1,484(sp)
   10b2c:	1e012903          	lw	s2,480(sp)
   10b30:	1dc12983          	lw	s3,476(sp)
   10b34:	1d812a03          	lw	s4,472(sp)
   10b38:	1d412a83          	lw	s5,468(sp)
   10b3c:	1d012b03          	lw	s6,464(sp)
   10b40:	1cc12b83          	lw	s7,460(sp)
   10b44:	1c812c03          	lw	s8,456(sp)
   10b48:	1c412c83          	lw	s9,452(sp)
   10b4c:	1c012d03          	lw	s10,448(sp)
   10b50:	1bc12d83          	lw	s11,444(sp)
   10b54:	1f010113          	addi	sp,sp,496
   10b58:	00008067          	ret
   10b5c:	00014797          	auipc	a5,0x14
   10b60:	26878793          	addi	a5,a5,616 # 24dc4 <zeroes.4505+0x20>
   10b64:	02f12623          	sw	a5,44(sp)
   10b68:	0209f793          	andi	a5,s3,32
   10b6c:	0e078c63          	beqz	a5,10c64 <_vfprintf_r+0x428>
   10b70:	00c12783          	lw	a5,12(sp)
   10b74:	00778793          	addi	a5,a5,7
   10b78:	ff87f793          	andi	a5,a5,-8
   10b7c:	0007ac83          	lw	s9,0(a5)
   10b80:	0047ab83          	lw	s7,4(a5)
   10b84:	00878713          	addi	a4,a5,8
   10b88:	00e12623          	sw	a4,12(sp)
   10b8c:	0019f713          	andi	a4,s3,1
   10b90:	00070863          	beqz	a4,10ba0 <_vfprintf_r+0x364>
   10b94:	017ce733          	or	a4,s9,s7
   10b98:	00070463          	beqz	a4,10ba0 <_vfprintf_r+0x364>
   10b9c:	3640106f          	j	11f00 <_vfprintf_r+0x16c4>
   10ba0:	bff9fa13          	andi	s4,s3,-1025
   10ba4:	00200713          	li	a4,2
   10ba8:	0c0103a3          	sb	zero,199(sp)
   10bac:	fff00693          	li	a3,-1
   10bb0:	0edb0ee3          	beq	s6,a3,114ac <_vfprintf_r+0xc70>
   10bb4:	017ce6b3          	or	a3,s9,s7
   10bb8:	f7fa7993          	andi	s3,s4,-129
   10bbc:	780698e3          	bnez	a3,11b4c <_vfprintf_r+0x1310>
   10bc0:	300b1ce3          	bnez	s6,116d8 <_vfprintf_r+0xe9c>
   10bc4:	22071663          	bnez	a4,10df0 <_vfprintf_r+0x5b4>
   10bc8:	001a7b93          	andi	s7,s4,1
   10bcc:	1b010d13          	addi	s10,sp,432
   10bd0:	000b8463          	beqz	s7,10bd8 <_vfprintf_r+0x39c>
   10bd4:	2d80106f          	j	11eac <_vfprintf_r+0x1670>
   10bd8:	000b8a13          	mv	s4,s7
   10bdc:	016bd463          	bge	s7,s6,10be4 <_vfprintf_r+0x3a8>
   10be0:	000b0a13          	mv	s4,s6
   10be4:	0c714783          	lbu	a5,199(sp)
   10be8:	00012823          	sw	zero,16(sp)
   10bec:	02012223          	sw	zero,36(sp)
   10bf0:	02012023          	sw	zero,32(sp)
   10bf4:	00012a23          	sw	zero,20(sp)
   10bf8:	32078263          	beqz	a5,10f1c <_vfprintf_r+0x6e0>
   10bfc:	001a0a13          	addi	s4,s4,1
   10c00:	31c0006f          	j	10f1c <_vfprintf_r+0x6e0>
   10c04:	00000493          	li	s1,0
   10c08:	fd040693          	addi	a3,s0,-48
   10c0c:	00190913          	addi	s2,s2,1
   10c10:	00249793          	slli	a5,s1,0x2
   10c14:	fff94403          	lbu	s0,-1(s2)
   10c18:	009787b3          	add	a5,a5,s1
   10c1c:	00179793          	slli	a5,a5,0x1
   10c20:	00f684b3          	add	s1,a3,a5
   10c24:	fd040693          	addi	a3,s0,-48
   10c28:	feda72e3          	bgeu	s4,a3,10c0c <_vfprintf_r+0x3d0>
   10c2c:	fe040793          	addi	a5,s0,-32
   10c30:	dcf778e3          	bgeu	a4,a5,10a00 <_vfprintf_r+0x1c4>
   10c34:	10040863          	beqz	s0,10d44 <_vfprintf_r+0x508>
   10c38:	14810623          	sb	s0,332(sp)
   10c3c:	0c0103a3          	sb	zero,199(sp)
   10c40:	00100a13          	li	s4,1
   10c44:	00100b93          	li	s7,1
   10c48:	14c10d13          	addi	s10,sp,332
   10c4c:	2bc0006f          	j	10f08 <_vfprintf_r+0x6cc>
   10c50:	00014797          	auipc	a5,0x14
   10c54:	18878793          	addi	a5,a5,392 # 24dd8 <zeroes.4505+0x34>
   10c58:	02f12623          	sw	a5,44(sp)
   10c5c:	0209f793          	andi	a5,s3,32
   10c60:	f00798e3          	bnez	a5,10b70 <_vfprintf_r+0x334>
   10c64:	00c12703          	lw	a4,12(sp)
   10c68:	0109f793          	andi	a5,s3,16
   10c6c:	00072c83          	lw	s9,0(a4)
   10c70:	00470713          	addi	a4,a4,4
   10c74:	00e12623          	sw	a4,12(sp)
   10c78:	00078463          	beqz	a5,10c80 <_vfprintf_r+0x444>
   10c7c:	2480106f          	j	11ec4 <_vfprintf_r+0x1688>
   10c80:	0409f793          	andi	a5,s3,64
   10c84:	00079463          	bnez	a5,10c8c <_vfprintf_r+0x450>
   10c88:	2340106f          	j	11ebc <_vfprintf_r+0x1680>
   10c8c:	010c9c93          	slli	s9,s9,0x10
   10c90:	010cdc93          	srli	s9,s9,0x10
   10c94:	00000b93          	li	s7,0
   10c98:	ef5ff06f          	j	10b8c <_vfprintf_r+0x350>
   10c9c:	00094403          	lbu	s0,0(s2)
   10ca0:	0049e993          	ori	s3,s3,4
   10ca4:	d4dff06f          	j	109f0 <_vfprintf_r+0x1b4>
   10ca8:	00094403          	lbu	s0,0(s2)
   10cac:	00190793          	addi	a5,s2,1
   10cb0:	01741463          	bne	s0,s7,10cb8 <_vfprintf_r+0x47c>
   10cb4:	6180206f          	j	132cc <_vfprintf_r+0x2a90>
   10cb8:	fd040693          	addi	a3,s0,-48
   10cbc:	00078913          	mv	s2,a5
   10cc0:	00000b13          	li	s6,0
   10cc4:	d2da6ae3          	bltu	s4,a3,109f8 <_vfprintf_r+0x1bc>
   10cc8:	00190913          	addi	s2,s2,1
   10ccc:	002b1793          	slli	a5,s6,0x2
   10cd0:	fff94403          	lbu	s0,-1(s2)
   10cd4:	016787b3          	add	a5,a5,s6
   10cd8:	00179793          	slli	a5,a5,0x1
   10cdc:	00d78b33          	add	s6,a5,a3
   10ce0:	fd040693          	addi	a3,s0,-48
   10ce4:	feda72e3          	bgeu	s4,a3,10cc8 <_vfprintf_r+0x48c>
   10ce8:	d11ff06f          	j	109f8 <_vfprintf_r+0x1bc>
   10cec:	00c12683          	lw	a3,12(sp)
   10cf0:	0209f793          	andi	a5,s3,32
   10cf4:	00468713          	addi	a4,a3,4
   10cf8:	00078463          	beqz	a5,10d00 <_vfprintf_r+0x4c4>
   10cfc:	2200106f          	j	11f1c <_vfprintf_r+0x16e0>
   10d00:	0109f793          	andi	a5,s3,16
   10d04:	00078463          	beqz	a5,10d0c <_vfprintf_r+0x4d0>
   10d08:	6380106f          	j	12340 <_vfprintf_r+0x1b04>
   10d0c:	0409f793          	andi	a5,s3,64
   10d10:	00078463          	beqz	a5,10d18 <_vfprintf_r+0x4dc>
   10d14:	2250106f          	j	12738 <_vfprintf_r+0x1efc>
   10d18:	2009f993          	andi	s3,s3,512
   10d1c:	00099463          	bnez	s3,10d24 <_vfprintf_r+0x4e8>
   10d20:	6200106f          	j	12340 <_vfprintf_r+0x1b04>
   10d24:	00c12783          	lw	a5,12(sp)
   10d28:	00e12623          	sw	a4,12(sp)
   10d2c:	00812703          	lw	a4,8(sp)
   10d30:	0007a783          	lw	a5,0(a5)
   10d34:	00090d13          	mv	s10,s2
   10d38:	00e78023          	sb	a4,0(a5)
   10d3c:	000d4783          	lbu	a5,0(s10)
   10d40:	c20790e3          	bnez	a5,10960 <_vfprintf_r+0x124>
   10d44:	0ec12783          	lw	a5,236(sp)
   10d48:	dc0780e3          	beqz	a5,10b08 <_vfprintf_r+0x2cc>
   10d4c:	00412583          	lw	a1,4(sp)
   10d50:	01c12503          	lw	a0,28(sp)
   10d54:	0e410613          	addi	a2,sp,228
   10d58:	1880b0ef          	jal	ra,1bee0 <__sprint_r>
   10d5c:	dadff06f          	j	10b08 <_vfprintf_r+0x2cc>
   10d60:	00094403          	lbu	s0,0(s2)
   10d64:	06c00793          	li	a5,108
   10d68:	00f41463          	bne	s0,a5,10d70 <_vfprintf_r+0x534>
   10d6c:	2940106f          	j	12000 <_vfprintf_r+0x17c4>
   10d70:	0109e993          	ori	s3,s3,16
   10d74:	c7dff06f          	j	109f0 <_vfprintf_r+0x1b4>
   10d78:	00094403          	lbu	s0,0(s2)
   10d7c:	06800793          	li	a5,104
   10d80:	00f41463          	bne	s0,a5,10d88 <_vfprintf_r+0x54c>
   10d84:	26c0106f          	j	11ff0 <_vfprintf_r+0x17b4>
   10d88:	0409e993          	ori	s3,s3,64
   10d8c:	c65ff06f          	j	109f0 <_vfprintf_r+0x1b4>
   10d90:	0209f793          	andi	a5,s3,32
   10d94:	0a0792e3          	bnez	a5,11638 <_vfprintf_r+0xdfc>
   10d98:	00c12703          	lw	a4,12(sp)
   10d9c:	0109f793          	andi	a5,s3,16
   10da0:	00470713          	addi	a4,a4,4
   10da4:	00078463          	beqz	a5,10dac <_vfprintf_r+0x570>
   10da8:	5700206f          	j	13318 <_vfprintf_r+0x2adc>
   10dac:	0409f793          	andi	a5,s3,64
   10db0:	00079463          	bnez	a5,10db8 <_vfprintf_r+0x57c>
   10db4:	65c0106f          	j	12410 <_vfprintf_r+0x1bd4>
   10db8:	00c12783          	lw	a5,12(sp)
   10dbc:	00098a13          	mv	s4,s3
   10dc0:	00e12623          	sw	a4,12(sp)
   10dc4:	00079c83          	lh	s9,0(a5)
   10dc8:	41fcdb93          	srai	s7,s9,0x1f
   10dcc:	000b8713          	mv	a4,s7
   10dd0:	6a074c63          	bltz	a4,11488 <_vfprintf_r+0xc4c>
   10dd4:	fff00713          	li	a4,-1
   10dd8:	0ceb0ee3          	beq	s6,a4,116b4 <_vfprintf_r+0xe78>
   10ddc:	017ce733          	or	a4,s9,s7
   10de0:	f7fa7993          	andi	s3,s4,-129
   10de4:	0c0716e3          	bnez	a4,116b0 <_vfprintf_r+0xe74>
   10de8:	000b0463          	beqz	s6,10df0 <_vfprintf_r+0x5b4>
   10dec:	5b10106f          	j	12b9c <_vfprintf_r+0x2360>
   10df0:	00000b13          	li	s6,0
   10df4:	00000b93          	li	s7,0
   10df8:	1b010d13          	addi	s10,sp,432
   10dfc:	dddff06f          	j	10bd8 <_vfprintf_r+0x39c>
   10e00:	0809e993          	ori	s3,s3,128
   10e04:	00094403          	lbu	s0,0(s2)
   10e08:	be9ff06f          	j	109f0 <_vfprintf_r+0x1b4>
   10e0c:	0209f793          	andi	a5,s3,32
   10e10:	0109ea13          	ori	s4,s3,16
   10e14:	040798e3          	bnez	a5,11664 <_vfprintf_r+0xe28>
   10e18:	00c12783          	lw	a5,12(sp)
   10e1c:	00478713          	addi	a4,a5,4
   10e20:	00c12783          	lw	a5,12(sp)
   10e24:	00000b93          	li	s7,0
   10e28:	00e12623          	sw	a4,12(sp)
   10e2c:	0007ac83          	lw	s9,0(a5)
   10e30:	00100713          	li	a4,1
   10e34:	d75ff06f          	j	10ba8 <_vfprintf_r+0x36c>
   10e38:	00c12783          	lw	a5,12(sp)
   10e3c:	0c0103a3          	sb	zero,199(sp)
   10e40:	0007ad03          	lw	s10,0(a5)
   10e44:	00478c93          	addi	s9,a5,4
   10e48:	000d1463          	bnez	s10,10e50 <_vfprintf_r+0x614>
   10e4c:	1c40106f          	j	12010 <_vfprintf_r+0x17d4>
   10e50:	fff00793          	li	a5,-1
   10e54:	00fb1463          	bne	s6,a5,10e5c <_vfprintf_r+0x620>
   10e58:	5a80106f          	j	12400 <_vfprintf_r+0x1bc4>
   10e5c:	000b0613          	mv	a2,s6
   10e60:	00000593          	li	a1,0
   10e64:	000d0513          	mv	a0,s10
   10e68:	491060ef          	jal	ra,17af8 <memchr>
   10e6c:	00a12823          	sw	a0,16(sp)
   10e70:	00051463          	bnez	a0,10e78 <_vfprintf_r+0x63c>
   10e74:	7890106f          	j	12dfc <_vfprintf_r+0x25c0>
   10e78:	01012783          	lw	a5,16(sp)
   10e7c:	41a78bb3          	sub	s7,a5,s10
   10e80:	0c714783          	lbu	a5,199(sp)
   10e84:	fffbca13          	not	s4,s7
   10e88:	41fa5a13          	srai	s4,s4,0x1f
   10e8c:	01912623          	sw	s9,12(sp)
   10e90:	00012823          	sw	zero,16(sp)
   10e94:	02012223          	sw	zero,36(sp)
   10e98:	02012023          	sw	zero,32(sp)
   10e9c:	00012a23          	sw	zero,20(sp)
   10ea0:	014bfa33          	and	s4,s7,s4
   10ea4:	00000b13          	li	s6,0
   10ea8:	d4079ae3          	bnez	a5,10bfc <_vfprintf_r+0x3c0>
   10eac:	0700006f          	j	10f1c <_vfprintf_r+0x6e0>
   10eb0:	0209f793          	andi	a5,s3,32
   10eb4:	0109e993          	ori	s3,s3,16
   10eb8:	7c079863          	bnez	a5,11688 <_vfprintf_r+0xe4c>
   10ebc:	00c12783          	lw	a5,12(sp)
   10ec0:	00478713          	addi	a4,a5,4
   10ec4:	00c12783          	lw	a5,12(sp)
   10ec8:	00000b93          	li	s7,0
   10ecc:	00e12623          	sw	a4,12(sp)
   10ed0:	0007ac83          	lw	s9,0(a5)
   10ed4:	7d00006f          	j	116a4 <_vfprintf_r+0xe68>
   10ed8:	0089e993          	ori	s3,s3,8
   10edc:	00094403          	lbu	s0,0(s2)
   10ee0:	b11ff06f          	j	109f0 <_vfprintf_r+0x1b4>
   10ee4:	00c12703          	lw	a4,12(sp)
   10ee8:	0c0103a3          	sb	zero,199(sp)
   10eec:	00100a13          	li	s4,1
   10ef0:	00072783          	lw	a5,0(a4)
   10ef4:	00470713          	addi	a4,a4,4
   10ef8:	00e12623          	sw	a4,12(sp)
   10efc:	14f10623          	sb	a5,332(sp)
   10f00:	00100b93          	li	s7,1
   10f04:	14c10d13          	addi	s10,sp,332
   10f08:	00012823          	sw	zero,16(sp)
   10f0c:	00000b13          	li	s6,0
   10f10:	02012223          	sw	zero,36(sp)
   10f14:	02012023          	sw	zero,32(sp)
   10f18:	00012a23          	sw	zero,20(sp)
   10f1c:	0029ff13          	andi	t5,s3,2
   10f20:	000f0463          	beqz	t5,10f28 <_vfprintf_r+0x6ec>
   10f24:	002a0a13          	addi	s4,s4,2
   10f28:	0849fe93          	andi	t4,s3,132
   10f2c:	0ec12783          	lw	a5,236(sp)
   10f30:	000e9663          	bnez	t4,10f3c <_vfprintf_r+0x700>
   10f34:	414486b3          	sub	a3,s1,s4
   10f38:	40d04ee3          	bgtz	a3,11b54 <_vfprintf_r+0x1318>
   10f3c:	0c714703          	lbu	a4,199(sp)
   10f40:	02070a63          	beqz	a4,10f74 <_vfprintf_r+0x738>
   10f44:	0e812703          	lw	a4,232(sp)
   10f48:	0c710693          	addi	a3,sp,199
   10f4c:	00dda023          	sw	a3,0(s11)
   10f50:	00178793          	addi	a5,a5,1
   10f54:	00100693          	li	a3,1
   10f58:	00170713          	addi	a4,a4,1
   10f5c:	00dda223          	sw	a3,4(s11)
   10f60:	0ef12623          	sw	a5,236(sp)
   10f64:	0ee12423          	sw	a4,232(sp)
   10f68:	00700693          	li	a3,7
   10f6c:	008d8d93          	addi	s11,s11,8
   10f70:	0ce6c263          	blt	a3,a4,11034 <_vfprintf_r+0x7f8>
   10f74:	020f0a63          	beqz	t5,10fa8 <_vfprintf_r+0x76c>
   10f78:	0e812703          	lw	a4,232(sp)
   10f7c:	0c810693          	addi	a3,sp,200
   10f80:	00dda023          	sw	a3,0(s11)
   10f84:	00278793          	addi	a5,a5,2
   10f88:	00200693          	li	a3,2
   10f8c:	00170713          	addi	a4,a4,1
   10f90:	00dda223          	sw	a3,4(s11)
   10f94:	0ef12623          	sw	a5,236(sp)
   10f98:	0ee12423          	sw	a4,232(sp)
   10f9c:	00700693          	li	a3,7
   10fa0:	008d8d93          	addi	s11,s11,8
   10fa4:	4ee6c2e3          	blt	a3,a4,11c88 <_vfprintf_r+0x144c>
   10fa8:	08000713          	li	a4,128
   10fac:	0cee88e3          	beq	t4,a4,1187c <_vfprintf_r+0x1040>
   10fb0:	417b0b33          	sub	s6,s6,s7
   10fb4:	1b604ee3          	bgtz	s6,11970 <_vfprintf_r+0x1134>
   10fb8:	1009f713          	andi	a4,s3,256
   10fbc:	76071c63          	bnez	a4,11734 <_vfprintf_r+0xef8>
   10fc0:	0e812703          	lw	a4,232(sp)
   10fc4:	017787b3          	add	a5,a5,s7
   10fc8:	01ada023          	sw	s10,0(s11)
   10fcc:	00170713          	addi	a4,a4,1
   10fd0:	017da223          	sw	s7,4(s11)
   10fd4:	0ef12623          	sw	a5,236(sp)
   10fd8:	0ee12423          	sw	a4,232(sp)
   10fdc:	00700693          	li	a3,7
   10fe0:	0ce6c663          	blt	a3,a4,110ac <_vfprintf_r+0x870>
   10fe4:	008d8d93          	addi	s11,s11,8
   10fe8:	0049f993          	andi	s3,s3,4
   10fec:	00098663          	beqz	s3,10ff8 <_vfprintf_r+0x7bc>
   10ff0:	41448433          	sub	s0,s1,s4
   10ff4:	0c804c63          	bgtz	s0,110cc <_vfprintf_r+0x890>
   10ff8:	0144d463          	bge	s1,s4,11000 <_vfprintf_r+0x7c4>
   10ffc:	000a0493          	mv	s1,s4
   11000:	00812703          	lw	a4,8(sp)
   11004:	00970733          	add	a4,a4,s1
   11008:	00e12423          	sw	a4,8(sp)
   1100c:	ac079ae3          	bnez	a5,10ae0 <_vfprintf_r+0x2a4>
   11010:	01012783          	lw	a5,16(sp)
   11014:	0e012423          	sw	zero,232(sp)
   11018:	00078863          	beqz	a5,11028 <_vfprintf_r+0x7ec>
   1101c:	01012583          	lw	a1,16(sp)
   11020:	000a8513          	mv	a0,s5
   11024:	018030ef          	jal	ra,1403c <_free_r>
   11028:	10c10d93          	addi	s11,sp,268
   1102c:	00090d13          	mv	s10,s2
   11030:	d0dff06f          	j	10d3c <_vfprintf_r+0x500>
   11034:	00412583          	lw	a1,4(sp)
   11038:	0e410613          	addi	a2,sp,228
   1103c:	000a8513          	mv	a0,s5
   11040:	05d12423          	sw	t4,72(sp)
   11044:	03e12a23          	sw	t5,52(sp)
   11048:	6990a0ef          	jal	ra,1bee0 <__sprint_r>
   1104c:	aa0514e3          	bnez	a0,10af4 <_vfprintf_r+0x2b8>
   11050:	0ec12783          	lw	a5,236(sp)
   11054:	10c10d93          	addi	s11,sp,268
   11058:	04812e83          	lw	t4,72(sp)
   1105c:	03412f03          	lw	t5,52(sp)
   11060:	f15ff06f          	j	10f74 <_vfprintf_r+0x738>
   11064:	0019f613          	andi	a2,s3,1
   11068:	200614e3          	bnez	a2,11a70 <_vfprintf_r+0x1234>
   1106c:	00eda223          	sw	a4,4(s11)
   11070:	0f912623          	sw	s9,236(sp)
   11074:	0e812423          	sw	s0,232(sp)
   11078:	00700713          	li	a4,7
   1107c:	728740e3          	blt	a4,s0,11f9c <_vfprintf_r+0x1760>
   11080:	00268b13          	addi	s6,a3,2
   11084:	010d8d93          	addi	s11,s11,16
   11088:	03812683          	lw	a3,56(sp)
   1108c:	0d410713          	addi	a4,sp,212
   11090:	00eba023          	sw	a4,0(s7)
   11094:	019687b3          	add	a5,a3,s9
   11098:	00dba223          	sw	a3,4(s7)
   1109c:	0ef12623          	sw	a5,236(sp)
   110a0:	0f612423          	sw	s6,232(sp)
   110a4:	00700713          	li	a4,7
   110a8:	f56750e3          	bge	a4,s6,10fe8 <_vfprintf_r+0x7ac>
   110ac:	00412583          	lw	a1,4(sp)
   110b0:	0e410613          	addi	a2,sp,228
   110b4:	000a8513          	mv	a0,s5
   110b8:	6290a0ef          	jal	ra,1bee0 <__sprint_r>
   110bc:	a2051ce3          	bnez	a0,10af4 <_vfprintf_r+0x2b8>
   110c0:	0ec12783          	lw	a5,236(sp)
   110c4:	10c10d93          	addi	s11,sp,268
   110c8:	f21ff06f          	j	10fe8 <_vfprintf_r+0x7ac>
   110cc:	0e812703          	lw	a4,232(sp)
   110d0:	00014c97          	auipc	s9,0x14
   110d4:	cc4c8c93          	addi	s9,s9,-828 # 24d94 <blanks.4504>
   110d8:	068c5063          	bge	s8,s0,11138 <_vfprintf_r+0x8fc>
   110dc:	00700993          	li	s3,7
   110e0:	00412b03          	lw	s6,4(sp)
   110e4:	00c0006f          	j	110f0 <_vfprintf_r+0x8b4>
   110e8:	ff040413          	addi	s0,s0,-16
   110ec:	048c5663          	bge	s8,s0,11138 <_vfprintf_r+0x8fc>
   110f0:	01078793          	addi	a5,a5,16
   110f4:	00170713          	addi	a4,a4,1
   110f8:	019da023          	sw	s9,0(s11)
   110fc:	018da223          	sw	s8,4(s11)
   11100:	0ef12623          	sw	a5,236(sp)
   11104:	0ee12423          	sw	a4,232(sp)
   11108:	008d8d93          	addi	s11,s11,8
   1110c:	fce9dee3          	bge	s3,a4,110e8 <_vfprintf_r+0x8ac>
   11110:	0e410613          	addi	a2,sp,228
   11114:	000b0593          	mv	a1,s6
   11118:	000a8513          	mv	a0,s5
   1111c:	5c50a0ef          	jal	ra,1bee0 <__sprint_r>
   11120:	9c051ae3          	bnez	a0,10af4 <_vfprintf_r+0x2b8>
   11124:	ff040413          	addi	s0,s0,-16
   11128:	0ec12783          	lw	a5,236(sp)
   1112c:	0e812703          	lw	a4,232(sp)
   11130:	10c10d93          	addi	s11,sp,268
   11134:	fa8c4ee3          	blt	s8,s0,110f0 <_vfprintf_r+0x8b4>
   11138:	008787b3          	add	a5,a5,s0
   1113c:	00170713          	addi	a4,a4,1
   11140:	019da023          	sw	s9,0(s11)
   11144:	008da223          	sw	s0,4(s11)
   11148:	0ef12623          	sw	a5,236(sp)
   1114c:	0ee12423          	sw	a4,232(sp)
   11150:	00700693          	li	a3,7
   11154:	eae6d2e3          	bge	a3,a4,10ff8 <_vfprintf_r+0x7bc>
   11158:	00412583          	lw	a1,4(sp)
   1115c:	0e410613          	addi	a2,sp,228
   11160:	000a8513          	mv	a0,s5
   11164:	57d0a0ef          	jal	ra,1bee0 <__sprint_r>
   11168:	980516e3          	bnez	a0,10af4 <_vfprintf_r+0x2b8>
   1116c:	0ec12783          	lw	a5,236(sp)
   11170:	e89ff06f          	j	10ff8 <_vfprintf_r+0x7bc>
   11174:	0089f793          	andi	a5,s3,8
   11178:	54079ae3          	bnez	a5,11ecc <_vfprintf_r+0x1690>
   1117c:	00c12783          	lw	a5,12(sp)
   11180:	0b010513          	addi	a0,sp,176
   11184:	00778793          	addi	a5,a5,7
   11188:	ff87f793          	andi	a5,a5,-8
   1118c:	0007a583          	lw	a1,0(a5)
   11190:	0047a603          	lw	a2,4(a5)
   11194:	00878793          	addi	a5,a5,8
   11198:	00f12623          	sw	a5,12(sp)
   1119c:	4ac130ef          	jal	ra,24648 <__extenddftf2>
   111a0:	0b012783          	lw	a5,176(sp)
   111a4:	0ef12823          	sw	a5,240(sp)
   111a8:	0b412783          	lw	a5,180(sp)
   111ac:	0ef12a23          	sw	a5,244(sp)
   111b0:	0b812783          	lw	a5,184(sp)
   111b4:	0ef12c23          	sw	a5,248(sp)
   111b8:	0bc12783          	lw	a5,188(sp)
   111bc:	0ef12e23          	sw	a5,252(sp)
   111c0:	0f010513          	addi	a0,sp,240
   111c4:	5f1050ef          	jal	ra,16fb4 <_ldcheck>
   111c8:	0ca12623          	sw	a0,204(sp)
   111cc:	00200793          	li	a5,2
   111d0:	00f51463          	bne	a0,a5,111d8 <_vfprintf_r+0x99c>
   111d4:	0ec0106f          	j	122c0 <_vfprintf_r+0x1a84>
   111d8:	00100793          	li	a5,1
   111dc:	00f51463          	bne	a0,a5,111e4 <_vfprintf_r+0x9a8>
   111e0:	28c0106f          	j	1246c <_vfprintf_r+0x1c30>
   111e4:	06100793          	li	a5,97
   111e8:	00f41463          	bne	s0,a5,111f0 <_vfprintf_r+0x9b4>
   111ec:	5a10106f          	j	12f8c <_vfprintf_r+0x2750>
   111f0:	04100793          	li	a5,65
   111f4:	00f41463          	bne	s0,a5,111fc <_vfprintf_r+0x9c0>
   111f8:	5dc0106f          	j	127d4 <_vfprintf_r+0x1f98>
   111fc:	fdf47713          	andi	a4,s0,-33
   11200:	fff00793          	li	a5,-1
   11204:	04e12423          	sw	a4,72(sp)
   11208:	00fb1463          	bne	s6,a5,11210 <_vfprintf_r+0x9d4>
   1120c:	61d0106f          	j	13028 <_vfprintf_r+0x27ec>
   11210:	04700793          	li	a5,71
   11214:	00f71463          	bne	a4,a5,1121c <_vfprintf_r+0x9e0>
   11218:	6010106f          	j	13018 <_vfprintf_r+0x27dc>
   1121c:	0fc12e03          	lw	t3,252(sp)
   11220:	05312a23          	sw	s3,84(sp)
   11224:	1009e793          	ori	a5,s3,256
   11228:	0f012e83          	lw	t4,240(sp)
   1122c:	0f412f03          	lw	t5,244(sp)
   11230:	0f812f83          	lw	t6,248(sp)
   11234:	000e5463          	bgez	t3,1123c <_vfprintf_r+0xa00>
   11238:	2250106f          	j	12c5c <_vfprintf_r+0x2420>
   1123c:	04012e23          	sw	zero,92(sp)
   11240:	00078993          	mv	s3,a5
   11244:	00012823          	sw	zero,16(sp)
   11248:	04812703          	lw	a4,72(sp)
   1124c:	04600793          	li	a5,70
   11250:	00f71463          	bne	a4,a5,11258 <_vfprintf_r+0xa1c>
   11254:	29d0106f          	j	12cf0 <_vfprintf_r+0x24b4>
   11258:	04500793          	li	a5,69
   1125c:	00f71463          	bne	a4,a5,11264 <_vfprintf_r+0xa28>
   11260:	4c10106f          	j	12f20 <_vfprintf_r+0x26e4>
   11264:	0b010b93          	addi	s7,sp,176
   11268:	0d010793          	addi	a5,sp,208
   1126c:	0cc10713          	addi	a4,sp,204
   11270:	0dc10813          	addi	a6,sp,220
   11274:	000b0693          	mv	a3,s6
   11278:	00200613          	li	a2,2
   1127c:	000b8593          	mv	a1,s7
   11280:	000a8513          	mv	a0,s5
   11284:	0bd12823          	sw	t4,176(sp)
   11288:	03d12223          	sw	t4,36(sp)
   1128c:	0be12a23          	sw	t5,180(sp)
   11290:	03e12023          	sw	t5,32(sp)
   11294:	0bf12c23          	sw	t6,184(sp)
   11298:	01f12c23          	sw	t6,24(sp)
   1129c:	0bc12e23          	sw	t3,188(sp)
   112a0:	01c12a23          	sw	t3,20(sp)
   112a4:	21d040ef          	jal	ra,15cc0 <_ldtoa_r>
   112a8:	04812703          	lw	a4,72(sp)
   112ac:	04700793          	li	a5,71
   112b0:	00050d13          	mv	s10,a0
   112b4:	01412e03          	lw	t3,20(sp)
   112b8:	01812f83          	lw	t6,24(sp)
   112bc:	02012f03          	lw	t5,32(sp)
   112c0:	02412e83          	lw	t4,36(sp)
   112c4:	00f70463          	beq	a4,a5,112cc <_vfprintf_r+0xa90>
   112c8:	0580206f          	j	13320 <_vfprintf_r+0x2ae4>
   112cc:	05412783          	lw	a5,84(sp)
   112d0:	0017f793          	andi	a5,a5,1
   112d4:	00078463          	beqz	a5,112dc <_vfprintf_r+0xaa0>
   112d8:	4390106f          	j	12f10 <_vfprintf_r+0x26d4>
   112dc:	0dc12783          	lw	a5,220(sp)
   112e0:	41a787b3          	sub	a5,a5,s10
   112e4:	00f12c23          	sw	a5,24(sp)
   112e8:	0cc12703          	lw	a4,204(sp)
   112ec:	04700793          	li	a5,71
   112f0:	00e12a23          	sw	a4,20(sp)
   112f4:	04812703          	lw	a4,72(sp)
   112f8:	00f71463          	bne	a4,a5,11300 <_vfprintf_r+0xac4>
   112fc:	0d90106f          	j	12bd4 <_vfprintf_r+0x2398>
   11300:	04812703          	lw	a4,72(sp)
   11304:	04600793          	li	a5,70
   11308:	00f71463          	bne	a4,a5,11310 <_vfprintf_r+0xad4>
   1130c:	3810106f          	j	12e8c <_vfprintf_r+0x2650>
   11310:	01412783          	lw	a5,20(sp)
   11314:	04812603          	lw	a2,72(sp)
   11318:	04100693          	li	a3,65
   1131c:	fff78a13          	addi	s4,a5,-1
   11320:	0d412623          	sw	s4,204(sp)
   11324:	0ff47793          	andi	a5,s0,255
   11328:	00000713          	li	a4,0
   1132c:	00d61863          	bne	a2,a3,1133c <_vfprintf_r+0xb00>
   11330:	00f78793          	addi	a5,a5,15
   11334:	0ff7f793          	andi	a5,a5,255
   11338:	00100713          	li	a4,1
   1133c:	0cf10a23          	sb	a5,212(sp)
   11340:	02b00793          	li	a5,43
   11344:	000a5a63          	bgez	s4,11358 <_vfprintf_r+0xb1c>
   11348:	01412783          	lw	a5,20(sp)
   1134c:	00100a13          	li	s4,1
   11350:	40fa0a33          	sub	s4,s4,a5
   11354:	02d00793          	li	a5,45
   11358:	0cf10aa3          	sb	a5,213(sp)
   1135c:	00900793          	li	a5,9
   11360:	0147c463          	blt	a5,s4,11368 <_vfprintf_r+0xb2c>
   11364:	5550106f          	j	130b8 <_vfprintf_r+0x287c>
   11368:	0e310b13          	addi	s6,sp,227
   1136c:	000b0b93          	mv	s7,s6
   11370:	06300993          	li	s3,99
   11374:	00c0006f          	j	11380 <_vfprintf_r+0xb44>
   11378:	00068b93          	mv	s7,a3
   1137c:	00050a13          	mv	s4,a0
   11380:	00a00593          	li	a1,10
   11384:	000a0513          	mv	a0,s4
   11388:	87cff0ef          	jal	ra,10404 <__modsi3>
   1138c:	03050513          	addi	a0,a0,48
   11390:	feab8fa3          	sb	a0,-1(s7)
   11394:	00a00593          	li	a1,10
   11398:	000a0513          	mv	a0,s4
   1139c:	fe5fe0ef          	jal	ra,10380 <__divsi3>
   113a0:	fffb8693          	addi	a3,s7,-1
   113a4:	fd49cae3          	blt	s3,s4,11378 <_vfprintf_r+0xb3c>
   113a8:	03050793          	addi	a5,a0,48
   113ac:	0ff7f793          	andi	a5,a5,255
   113b0:	ffeb8713          	addi	a4,s7,-2
   113b4:	fef68fa3          	sb	a5,-1(a3)
   113b8:	01676463          	bltu	a4,s6,113c0 <_vfprintf_r+0xb84>
   113bc:	73d0106f          	j	132f8 <_vfprintf_r+0x2abc>
   113c0:	0d610693          	addi	a3,sp,214
   113c4:	0080006f          	j	113cc <_vfprintf_r+0xb90>
   113c8:	00074783          	lbu	a5,0(a4)
   113cc:	00168693          	addi	a3,a3,1
   113d0:	00170713          	addi	a4,a4,1
   113d4:	fef68fa3          	sb	a5,-1(a3)
   113d8:	ff6718e3          	bne	a4,s6,113c8 <_vfprintf_r+0xb8c>
   113dc:	0e510793          	addi	a5,sp,229
   113e0:	0d610713          	addi	a4,sp,214
   113e4:	417787b3          	sub	a5,a5,s7
   113e8:	00f707b3          	add	a5,a4,a5
   113ec:	0d410713          	addi	a4,sp,212
   113f0:	40e787b3          	sub	a5,a5,a4
   113f4:	02f12c23          	sw	a5,56(sp)
   113f8:	01812703          	lw	a4,24(sp)
   113fc:	03812683          	lw	a3,56(sp)
   11400:	00100793          	li	a5,1
   11404:	00d70bb3          	add	s7,a4,a3
   11408:	00e7c463          	blt	a5,a4,11410 <_vfprintf_r+0xbd4>
   1140c:	5f50106f          	j	13200 <_vfprintf_r+0x29c4>
   11410:	02812783          	lw	a5,40(sp)
   11414:	00fb8bb3          	add	s7,s7,a5
   11418:	05412783          	lw	a5,84(sp)
   1141c:	fffbca13          	not	s4,s7
   11420:	41fa5a13          	srai	s4,s4,0x1f
   11424:	bff7f993          	andi	s3,a5,-1025
   11428:	1009e993          	ori	s3,s3,256
   1142c:	014bfa33          	and	s4,s7,s4
   11430:	02012223          	sw	zero,36(sp)
   11434:	02012023          	sw	zero,32(sp)
   11438:	00012a23          	sw	zero,20(sp)
   1143c:	05c12783          	lw	a5,92(sp)
   11440:	00079463          	bnez	a5,11448 <_vfprintf_r+0xc0c>
   11444:	0050106f          	j	12c48 <_vfprintf_r+0x240c>
   11448:	02d00793          	li	a5,45
   1144c:	0cf103a3          	sb	a5,199(sp)
   11450:	00000b13          	li	s6,0
   11454:	001a0a13          	addi	s4,s4,1
   11458:	ac5ff06f          	j	10f1c <_vfprintf_r+0x6e0>
   1145c:	0209f793          	andi	a5,s3,32
   11460:	0109ea13          	ori	s4,s3,16
   11464:	1c079c63          	bnez	a5,1163c <_vfprintf_r+0xe00>
   11468:	00c12783          	lw	a5,12(sp)
   1146c:	00478713          	addi	a4,a5,4
   11470:	00c12783          	lw	a5,12(sp)
   11474:	00e12623          	sw	a4,12(sp)
   11478:	0007ac83          	lw	s9,0(a5)
   1147c:	41fcdb93          	srai	s7,s9,0x1f
   11480:	000b8713          	mv	a4,s7
   11484:	940758e3          	bgez	a4,10dd4 <_vfprintf_r+0x598>
   11488:	41900cb3          	neg	s9,s9
   1148c:	01903733          	snez	a4,s9
   11490:	417007b3          	neg	a5,s7
   11494:	40e78bb3          	sub	s7,a5,a4
   11498:	02d00713          	li	a4,45
   1149c:	0ce103a3          	sb	a4,199(sp)
   114a0:	fff00693          	li	a3,-1
   114a4:	00100713          	li	a4,1
   114a8:	f0db1663          	bne	s6,a3,10bb4 <_vfprintf_r+0x378>
   114ac:	00100693          	li	a3,1
   114b0:	20d70263          	beq	a4,a3,116b4 <_vfprintf_r+0xe78>
   114b4:	00200693          	li	a3,2
   114b8:	22d70c63          	beq	a4,a3,116f0 <_vfprintf_r+0xeb4>
   114bc:	1b010693          	addi	a3,sp,432
   114c0:	0080006f          	j	114c8 <_vfprintf_r+0xc8c>
   114c4:	000d0693          	mv	a3,s10
   114c8:	01db9793          	slli	a5,s7,0x1d
   114cc:	007cf713          	andi	a4,s9,7
   114d0:	003cdc93          	srli	s9,s9,0x3
   114d4:	03070713          	addi	a4,a4,48
   114d8:	0197ecb3          	or	s9,a5,s9
   114dc:	003bdb93          	srli	s7,s7,0x3
   114e0:	fee68fa3          	sb	a4,-1(a3)
   114e4:	017ce7b3          	or	a5,s9,s7
   114e8:	fff68d13          	addi	s10,a3,-1
   114ec:	fc079ce3          	bnez	a5,114c4 <_vfprintf_r+0xc88>
   114f0:	001a7793          	andi	a5,s4,1
   114f4:	22078863          	beqz	a5,11724 <_vfprintf_r+0xee8>
   114f8:	03000793          	li	a5,48
   114fc:	22f70463          	beq	a4,a5,11724 <_vfprintf_r+0xee8>
   11500:	ffe68693          	addi	a3,a3,-2
   11504:	fefd0fa3          	sb	a5,-1(s10)
   11508:	1b010793          	addi	a5,sp,432
   1150c:	40d78bb3          	sub	s7,a5,a3
   11510:	000a0993          	mv	s3,s4
   11514:	00068d13          	mv	s10,a3
   11518:	ec0ff06f          	j	10bd8 <_vfprintf_r+0x39c>
   1151c:	00c12783          	lw	a5,12(sp)
   11520:	ffff8737          	lui	a4,0xffff8
   11524:	83074713          	xori	a4,a4,-2000
   11528:	0007ac83          	lw	s9,0(a5)
   1152c:	00478793          	addi	a5,a5,4
   11530:	00f12623          	sw	a5,12(sp)
   11534:	00014797          	auipc	a5,0x14
   11538:	89078793          	addi	a5,a5,-1904 # 24dc4 <zeroes.4505+0x20>
   1153c:	0ce11423          	sh	a4,200(sp)
   11540:	00000b93          	li	s7,0
   11544:	0029ea13          	ori	s4,s3,2
   11548:	02f12623          	sw	a5,44(sp)
   1154c:	00200713          	li	a4,2
   11550:	07800413          	li	s0,120
   11554:	e54ff06f          	j	10ba8 <_vfprintf_r+0x36c>
   11558:	0c714783          	lbu	a5,199(sp)
   1155c:	00094403          	lbu	s0,0(s2)
   11560:	c8079863          	bnez	a5,109f0 <_vfprintf_r+0x1b4>
   11564:	02000793          	li	a5,32
   11568:	0cf103a3          	sb	a5,199(sp)
   1156c:	c84ff06f          	j	109f0 <_vfprintf_r+0x1b4>
   11570:	02b00793          	li	a5,43
   11574:	0cf103a3          	sb	a5,199(sp)
   11578:	00094403          	lbu	s0,0(s2)
   1157c:	c74ff06f          	j	109f0 <_vfprintf_r+0x1b4>
   11580:	00c12783          	lw	a5,12(sp)
   11584:	00094403          	lbu	s0,0(s2)
   11588:	0007a483          	lw	s1,0(a5)
   1158c:	00478793          	addi	a5,a5,4
   11590:	00f12623          	sw	a5,12(sp)
   11594:	c404de63          	bgez	s1,109f0 <_vfprintf_r+0x1b4>
   11598:	409004b3          	neg	s1,s1
   1159c:	0049e993          	ori	s3,s3,4
   115a0:	c50ff06f          	j	109f0 <_vfprintf_r+0x1b4>
   115a4:	0019e993          	ori	s3,s3,1
   115a8:	00094403          	lbu	s0,0(s2)
   115ac:	c44ff06f          	j	109f0 <_vfprintf_r+0x1b4>
   115b0:	0209f793          	andi	a5,s3,32
   115b4:	0c079a63          	bnez	a5,11688 <_vfprintf_r+0xe4c>
   115b8:	00c12683          	lw	a3,12(sp)
   115bc:	0109f793          	andi	a5,s3,16
   115c0:	00468713          	addi	a4,a3,4
   115c4:	0006ac83          	lw	s9,0(a3)
   115c8:	8e079ee3          	bnez	a5,10ec4 <_vfprintf_r+0x688>
   115cc:	0409f793          	andi	a5,s3,64
   115d0:	660782e3          	beqz	a5,12434 <_vfprintf_r+0x1bf8>
   115d4:	010c9c93          	slli	s9,s9,0x10
   115d8:	010cdc93          	srli	s9,s9,0x10
   115dc:	00000b93          	li	s7,0
   115e0:	00e12623          	sw	a4,12(sp)
   115e4:	0c00006f          	j	116a4 <_vfprintf_r+0xe68>
   115e8:	0209f793          	andi	a5,s3,32
   115ec:	06079a63          	bnez	a5,11660 <_vfprintf_r+0xe24>
   115f0:	00c12683          	lw	a3,12(sp)
   115f4:	0109f793          	andi	a5,s3,16
   115f8:	00468713          	addi	a4,a3,4
   115fc:	0006ac83          	lw	s9,0(a3)
   11600:	00078463          	beqz	a5,11608 <_vfprintf_r+0xdcc>
   11604:	4ed0106f          	j	132f0 <_vfprintf_r+0x2ab4>
   11608:	0409f793          	andi	a5,s3,64
   1160c:	640780e3          	beqz	a5,1244c <_vfprintf_r+0x1c10>
   11610:	010c9c93          	slli	s9,s9,0x10
   11614:	00e12623          	sw	a4,12(sp)
   11618:	010cdc93          	srli	s9,s9,0x10
   1161c:	00000b93          	li	s7,0
   11620:	00098a13          	mv	s4,s3
   11624:	00100713          	li	a4,1
   11628:	d80ff06f          	j	10ba8 <_vfprintf_r+0x36c>
   1162c:	01c12503          	lw	a0,28(sp)
   11630:	09d020ef          	jal	ra,13ecc <__sinit>
   11634:	a88ff06f          	j	108bc <_vfprintf_r+0x80>
   11638:	00098a13          	mv	s4,s3
   1163c:	00c12783          	lw	a5,12(sp)
   11640:	00778793          	addi	a5,a5,7
   11644:	ff87f793          	andi	a5,a5,-8
   11648:	0047a703          	lw	a4,4(a5)
   1164c:	00878693          	addi	a3,a5,8
   11650:	00d12623          	sw	a3,12(sp)
   11654:	0007ac83          	lw	s9,0(a5)
   11658:	00070b93          	mv	s7,a4
   1165c:	f74ff06f          	j	10dd0 <_vfprintf_r+0x594>
   11660:	00098a13          	mv	s4,s3
   11664:	00c12783          	lw	a5,12(sp)
   11668:	00778793          	addi	a5,a5,7
   1166c:	ff87f793          	andi	a5,a5,-8
   11670:	00878713          	addi	a4,a5,8
   11674:	00e12623          	sw	a4,12(sp)
   11678:	0007ac83          	lw	s9,0(a5)
   1167c:	0047ab83          	lw	s7,4(a5)
   11680:	00100713          	li	a4,1
   11684:	d24ff06f          	j	10ba8 <_vfprintf_r+0x36c>
   11688:	00c12783          	lw	a5,12(sp)
   1168c:	00778793          	addi	a5,a5,7
   11690:	ff87f793          	andi	a5,a5,-8
   11694:	0007ac83          	lw	s9,0(a5)
   11698:	0047ab83          	lw	s7,4(a5)
   1169c:	00878713          	addi	a4,a5,8
   116a0:	00e12623          	sw	a4,12(sp)
   116a4:	bff9fa13          	andi	s4,s3,-1025
   116a8:	00000713          	li	a4,0
   116ac:	cfcff06f          	j	10ba8 <_vfprintf_r+0x36c>
   116b0:	00098a13          	mv	s4,s3
   116b4:	2e0b96e3          	bnez	s7,121a0 <_vfprintf_r+0x1964>
   116b8:	00900713          	li	a4,9
   116bc:	2f9762e3          	bltu	a4,s9,121a0 <_vfprintf_r+0x1964>
   116c0:	030c8c93          	addi	s9,s9,48
   116c4:	1b9107a3          	sb	s9,431(sp)
   116c8:	000a0993          	mv	s3,s4
   116cc:	00100b93          	li	s7,1
   116d0:	1af10d13          	addi	s10,sp,431
   116d4:	d04ff06f          	j	10bd8 <_vfprintf_r+0x39c>
   116d8:	00100693          	li	a3,1
   116dc:	00d71463          	bne	a4,a3,116e4 <_vfprintf_r+0xea8>
   116e0:	4bc0106f          	j	12b9c <_vfprintf_r+0x2360>
   116e4:	00200693          	li	a3,2
   116e8:	00098a13          	mv	s4,s3
   116ec:	dcd718e3          	bne	a4,a3,114bc <_vfprintf_r+0xc80>
   116f0:	02c12683          	lw	a3,44(sp)
   116f4:	1b010d13          	addi	s10,sp,432
   116f8:	00fcf793          	andi	a5,s9,15
   116fc:	00f687b3          	add	a5,a3,a5
   11700:	0007c783          	lbu	a5,0(a5)
   11704:	01cb9713          	slli	a4,s7,0x1c
   11708:	004cdc93          	srli	s9,s9,0x4
   1170c:	fffd0d13          	addi	s10,s10,-1
   11710:	01976cb3          	or	s9,a4,s9
   11714:	004bdb93          	srli	s7,s7,0x4
   11718:	00fd0023          	sb	a5,0(s10)
   1171c:	017ce7b3          	or	a5,s9,s7
   11720:	fc079ce3          	bnez	a5,116f8 <_vfprintf_r+0xebc>
   11724:	1b010793          	addi	a5,sp,432
   11728:	41a78bb3          	sub	s7,a5,s10
   1172c:	000a0993          	mv	s3,s4
   11730:	ca8ff06f          	j	10bd8 <_vfprintf_r+0x39c>
   11734:	06500713          	li	a4,101
   11738:	30875c63          	bge	a4,s0,11a50 <_vfprintf_r+0x1214>
   1173c:	0f012703          	lw	a4,240(sp)
   11740:	0a010593          	addi	a1,sp,160
   11744:	0b010513          	addi	a0,sp,176
   11748:	0ae12823          	sw	a4,176(sp)
   1174c:	0f412703          	lw	a4,244(sp)
   11750:	02f12a23          	sw	a5,52(sp)
   11754:	0a012023          	sw	zero,160(sp)
   11758:	0ae12a23          	sw	a4,180(sp)
   1175c:	0f812703          	lw	a4,248(sp)
   11760:	0a012223          	sw	zero,164(sp)
   11764:	0a012423          	sw	zero,168(sp)
   11768:	0ae12c23          	sw	a4,184(sp)
   1176c:	0fc12703          	lw	a4,252(sp)
   11770:	0a012623          	sw	zero,172(sp)
   11774:	0ae12e23          	sw	a4,188(sp)
   11778:	7990f0ef          	jal	ra,21710 <__eqtf2>
   1177c:	03412783          	lw	a5,52(sp)
   11780:	52051a63          	bnez	a0,11cb4 <_vfprintf_r+0x1478>
   11784:	0e812703          	lw	a4,232(sp)
   11788:	00013697          	auipc	a3,0x13
   1178c:	66c68693          	addi	a3,a3,1644 # 24df4 <zeroes.4505+0x50>
   11790:	00178793          	addi	a5,a5,1
   11794:	00dda023          	sw	a3,0(s11)
   11798:	00170713          	addi	a4,a4,1 # ffff8001 <__BSS_END__+0xfffd1519>
   1179c:	00100693          	li	a3,1
   117a0:	00dda223          	sw	a3,4(s11)
   117a4:	0ef12623          	sw	a5,236(sp)
   117a8:	0ee12423          	sw	a4,232(sp)
   117ac:	00700793          	li	a5,7
   117b0:	008d8d93          	addi	s11,s11,8
   117b4:	2ae7cee3          	blt	a5,a4,12270 <_vfprintf_r+0x1a34>
   117b8:	0cc12783          	lw	a5,204(sp)
   117bc:	01812703          	lw	a4,24(sp)
   117c0:	00e7ca63          	blt	a5,a4,117d4 <_vfprintf_r+0xf98>
   117c4:	0019f793          	andi	a5,s3,1
   117c8:	00079663          	bnez	a5,117d4 <_vfprintf_r+0xf98>
   117cc:	0ec12783          	lw	a5,236(sp)
   117d0:	819ff06f          	j	10fe8 <_vfprintf_r+0x7ac>
   117d4:	03012783          	lw	a5,48(sp)
   117d8:	02812683          	lw	a3,40(sp)
   117dc:	0e812703          	lw	a4,232(sp)
   117e0:	00fda023          	sw	a5,0(s11)
   117e4:	0ec12783          	lw	a5,236(sp)
   117e8:	00170713          	addi	a4,a4,1
   117ec:	00dda223          	sw	a3,4(s11)
   117f0:	00f687b3          	add	a5,a3,a5
   117f4:	0ef12623          	sw	a5,236(sp)
   117f8:	0ee12423          	sw	a4,232(sp)
   117fc:	00700693          	li	a3,7
   11800:	008d8d93          	addi	s11,s11,8
   11804:	7ce6c463          	blt	a3,a4,11fcc <_vfprintf_r+0x1790>
   11808:	01812703          	lw	a4,24(sp)
   1180c:	fff70413          	addi	s0,a4,-1
   11810:	fc805c63          	blez	s0,10fe8 <_vfprintf_r+0x7ac>
   11814:	0e812703          	lw	a4,232(sp)
   11818:	268c5ce3          	bge	s8,s0,12290 <_vfprintf_r+0x1a54>
   1181c:	00700b93          	li	s7,7
   11820:	00412b03          	lw	s6,4(sp)
   11824:	00c0006f          	j	11830 <_vfprintf_r+0xff4>
   11828:	ff040413          	addi	s0,s0,-16
   1182c:	268c52e3          	bge	s8,s0,12290 <_vfprintf_r+0x1a54>
   11830:	01078793          	addi	a5,a5,16
   11834:	00170713          	addi	a4,a4,1
   11838:	00013697          	auipc	a3,0x13
   1183c:	56c68693          	addi	a3,a3,1388 # 24da4 <zeroes.4505>
   11840:	00dda023          	sw	a3,0(s11)
   11844:	018da223          	sw	s8,4(s11)
   11848:	0ef12623          	sw	a5,236(sp)
   1184c:	0ee12423          	sw	a4,232(sp)
   11850:	008d8d93          	addi	s11,s11,8
   11854:	fcebdae3          	bge	s7,a4,11828 <_vfprintf_r+0xfec>
   11858:	0e410613          	addi	a2,sp,228
   1185c:	000b0593          	mv	a1,s6
   11860:	000a8513          	mv	a0,s5
   11864:	67c0a0ef          	jal	ra,1bee0 <__sprint_r>
   11868:	a8051663          	bnez	a0,10af4 <_vfprintf_r+0x2b8>
   1186c:	0ec12783          	lw	a5,236(sp)
   11870:	0e812703          	lw	a4,232(sp)
   11874:	10c10d93          	addi	s11,sp,268
   11878:	fb1ff06f          	j	11828 <_vfprintf_r+0xfec>
   1187c:	41448cb3          	sub	s9,s1,s4
   11880:	f3905863          	blez	s9,10fb0 <_vfprintf_r+0x774>
   11884:	0e812703          	lw	a4,232(sp)
   11888:	099c5e63          	bge	s8,s9,11924 <_vfprintf_r+0x10e8>
   1188c:	000c8693          	mv	a3,s9
   11890:	02812a23          	sw	s0,52(sp)
   11894:	000b8c93          	mv	s9,s7
   11898:	00700e13          	li	t3,7
   1189c:	000a0b93          	mv	s7,s4
   118a0:	00412403          	lw	s0,4(sp)
   118a4:	00048a13          	mv	s4,s1
   118a8:	00068493          	mv	s1,a3
   118ac:	00c0006f          	j	118b8 <_vfprintf_r+0x107c>
   118b0:	ff048493          	addi	s1,s1,-16
   118b4:	049c5c63          	bge	s8,s1,1190c <_vfprintf_r+0x10d0>
   118b8:	01078793          	addi	a5,a5,16
   118bc:	00170713          	addi	a4,a4,1
   118c0:	00013697          	auipc	a3,0x13
   118c4:	4e468693          	addi	a3,a3,1252 # 24da4 <zeroes.4505>
   118c8:	00dda023          	sw	a3,0(s11)
   118cc:	018da223          	sw	s8,4(s11)
   118d0:	0ef12623          	sw	a5,236(sp)
   118d4:	0ee12423          	sw	a4,232(sp)
   118d8:	008d8d93          	addi	s11,s11,8
   118dc:	fcee5ae3          	bge	t3,a4,118b0 <_vfprintf_r+0x1074>
   118e0:	0e410613          	addi	a2,sp,228
   118e4:	00040593          	mv	a1,s0
   118e8:	000a8513          	mv	a0,s5
   118ec:	5f40a0ef          	jal	ra,1bee0 <__sprint_r>
   118f0:	a0051263          	bnez	a0,10af4 <_vfprintf_r+0x2b8>
   118f4:	ff048493          	addi	s1,s1,-16
   118f8:	0ec12783          	lw	a5,236(sp)
   118fc:	0e812703          	lw	a4,232(sp)
   11900:	10c10d93          	addi	s11,sp,268
   11904:	00700e13          	li	t3,7
   11908:	fa9c48e3          	blt	s8,s1,118b8 <_vfprintf_r+0x107c>
   1190c:	03412403          	lw	s0,52(sp)
   11910:	00048693          	mv	a3,s1
   11914:	000a0493          	mv	s1,s4
   11918:	000b8a13          	mv	s4,s7
   1191c:	000c8b93          	mv	s7,s9
   11920:	00068c93          	mv	s9,a3
   11924:	00013697          	auipc	a3,0x13
   11928:	48068693          	addi	a3,a3,1152 # 24da4 <zeroes.4505>
   1192c:	019787b3          	add	a5,a5,s9
   11930:	00170713          	addi	a4,a4,1
   11934:	00dda023          	sw	a3,0(s11)
   11938:	019da223          	sw	s9,4(s11)
   1193c:	0ef12623          	sw	a5,236(sp)
   11940:	0ee12423          	sw	a4,232(sp)
   11944:	00700693          	li	a3,7
   11948:	008d8d93          	addi	s11,s11,8
   1194c:	e6e6d263          	bge	a3,a4,10fb0 <_vfprintf_r+0x774>
   11950:	00412583          	lw	a1,4(sp)
   11954:	0e410613          	addi	a2,sp,228
   11958:	000a8513          	mv	a0,s5
   1195c:	5840a0ef          	jal	ra,1bee0 <__sprint_r>
   11960:	98051a63          	bnez	a0,10af4 <_vfprintf_r+0x2b8>
   11964:	0ec12783          	lw	a5,236(sp)
   11968:	10c10d93          	addi	s11,sp,268
   1196c:	e44ff06f          	j	10fb0 <_vfprintf_r+0x774>
   11970:	0e812703          	lw	a4,232(sp)
   11974:	096c5863          	bge	s8,s6,11a04 <_vfprintf_r+0x11c8>
   11978:	000a0693          	mv	a3,s4
   1197c:	02812a23          	sw	s0,52(sp)
   11980:	00048a13          	mv	s4,s1
   11984:	00700c93          	li	s9,7
   11988:	000b0493          	mv	s1,s6
   1198c:	00412403          	lw	s0,4(sp)
   11990:	00068b13          	mv	s6,a3
   11994:	00c0006f          	j	119a0 <_vfprintf_r+0x1164>
   11998:	ff048493          	addi	s1,s1,-16
   1199c:	049c5a63          	bge	s8,s1,119f0 <_vfprintf_r+0x11b4>
   119a0:	01078793          	addi	a5,a5,16
   119a4:	00170713          	addi	a4,a4,1
   119a8:	00013697          	auipc	a3,0x13
   119ac:	3fc68693          	addi	a3,a3,1020 # 24da4 <zeroes.4505>
   119b0:	00dda023          	sw	a3,0(s11)
   119b4:	018da223          	sw	s8,4(s11)
   119b8:	0ef12623          	sw	a5,236(sp)
   119bc:	0ee12423          	sw	a4,232(sp)
   119c0:	008d8d93          	addi	s11,s11,8
   119c4:	fcecdae3          	bge	s9,a4,11998 <_vfprintf_r+0x115c>
   119c8:	0e410613          	addi	a2,sp,228
   119cc:	00040593          	mv	a1,s0
   119d0:	000a8513          	mv	a0,s5
   119d4:	50c0a0ef          	jal	ra,1bee0 <__sprint_r>
   119d8:	90051e63          	bnez	a0,10af4 <_vfprintf_r+0x2b8>
   119dc:	ff048493          	addi	s1,s1,-16
   119e0:	0ec12783          	lw	a5,236(sp)
   119e4:	0e812703          	lw	a4,232(sp)
   119e8:	10c10d93          	addi	s11,sp,268
   119ec:	fa9c4ae3          	blt	s8,s1,119a0 <_vfprintf_r+0x1164>
   119f0:	03412403          	lw	s0,52(sp)
   119f4:	000b0693          	mv	a3,s6
   119f8:	00048b13          	mv	s6,s1
   119fc:	000a0493          	mv	s1,s4
   11a00:	00068a13          	mv	s4,a3
   11a04:	00013697          	auipc	a3,0x13
   11a08:	3a068693          	addi	a3,a3,928 # 24da4 <zeroes.4505>
   11a0c:	016787b3          	add	a5,a5,s6
   11a10:	00170713          	addi	a4,a4,1
   11a14:	00dda023          	sw	a3,0(s11)
   11a18:	016da223          	sw	s6,4(s11)
   11a1c:	0ef12623          	sw	a5,236(sp)
   11a20:	0ee12423          	sw	a4,232(sp)
   11a24:	00700693          	li	a3,7
   11a28:	008d8d93          	addi	s11,s11,8
   11a2c:	d8e6d663          	bge	a3,a4,10fb8 <_vfprintf_r+0x77c>
   11a30:	00412583          	lw	a1,4(sp)
   11a34:	0e410613          	addi	a2,sp,228
   11a38:	000a8513          	mv	a0,s5
   11a3c:	4a40a0ef          	jal	ra,1bee0 <__sprint_r>
   11a40:	8a051a63          	bnez	a0,10af4 <_vfprintf_r+0x2b8>
   11a44:	0ec12783          	lw	a5,236(sp)
   11a48:	10c10d93          	addi	s11,sp,268
   11a4c:	d6cff06f          	j	10fb8 <_vfprintf_r+0x77c>
   11a50:	0e812683          	lw	a3,232(sp)
   11a54:	00178c93          	addi	s9,a5,1
   11a58:	01812783          	lw	a5,24(sp)
   11a5c:	00100713          	li	a4,1
   11a60:	01ada023          	sw	s10,0(s11)
   11a64:	00168413          	addi	s0,a3,1
   11a68:	008d8b93          	addi	s7,s11,8
   11a6c:	def75c63          	bge	a4,a5,11064 <_vfprintf_r+0x828>
   11a70:	00100713          	li	a4,1
   11a74:	00eda223          	sw	a4,4(s11)
   11a78:	0f912623          	sw	s9,236(sp)
   11a7c:	0e812423          	sw	s0,232(sp)
   11a80:	00700713          	li	a4,7
   11a84:	62874063          	blt	a4,s0,120a4 <_vfprintf_r+0x1868>
   11a88:	02812783          	lw	a5,40(sp)
   11a8c:	03012703          	lw	a4,48(sp)
   11a90:	00140413          	addi	s0,s0,1
   11a94:	00fc8cb3          	add	s9,s9,a5
   11a98:	00eba023          	sw	a4,0(s7)
   11a9c:	00fba223          	sw	a5,4(s7)
   11aa0:	0f912623          	sw	s9,236(sp)
   11aa4:	0e812423          	sw	s0,232(sp)
   11aa8:	00700713          	li	a4,7
   11aac:	008b8b93          	addi	s7,s7,8
   11ab0:	60874e63          	blt	a4,s0,120cc <_vfprintf_r+0x1890>
   11ab4:	0f012703          	lw	a4,240(sp)
   11ab8:	01812783          	lw	a5,24(sp)
   11abc:	00140613          	addi	a2,s0,1
   11ac0:	0ae12823          	sw	a4,176(sp)
   11ac4:	0f412703          	lw	a4,244(sp)
   11ac8:	0a010593          	addi	a1,sp,160
   11acc:	0b010513          	addi	a0,sp,176
   11ad0:	0ae12a23          	sw	a4,180(sp)
   11ad4:	0f812703          	lw	a4,248(sp)
   11ad8:	00060b13          	mv	s6,a2
   11adc:	02c12023          	sw	a2,32(sp)
   11ae0:	0ae12c23          	sw	a4,184(sp)
   11ae4:	0fc12703          	lw	a4,252(sp)
   11ae8:	0a012023          	sw	zero,160(sp)
   11aec:	0a012223          	sw	zero,164(sp)
   11af0:	0ae12e23          	sw	a4,188(sp)
   11af4:	fff78713          	addi	a4,a5,-1
   11af8:	00e12a23          	sw	a4,20(sp)
   11afc:	0a012423          	sw	zero,168(sp)
   11b00:	0a012623          	sw	zero,172(sp)
   11b04:	40d0f0ef          	jal	ra,21710 <__eqtf2>
   11b08:	008b8d93          	addi	s11,s7,8
   11b0c:	01412703          	lw	a4,20(sp)
   11b10:	02012603          	lw	a2,32(sp)
   11b14:	32050063          	beqz	a0,11e34 <_vfprintf_r+0x15f8>
   11b18:	00ec8cb3          	add	s9,s9,a4
   11b1c:	001d0813          	addi	a6,s10,1
   11b20:	00eba223          	sw	a4,4(s7)
   11b24:	010ba023          	sw	a6,0(s7)
   11b28:	0f912623          	sw	s9,236(sp)
   11b2c:	0f612423          	sw	s6,232(sp)
   11b30:	00700713          	li	a4,7
   11b34:	47674463          	blt	a4,s6,11f9c <_vfprintf_r+0x1760>
   11b38:	010b8713          	addi	a4,s7,16
   11b3c:	00240b13          	addi	s6,s0,2
   11b40:	000d8b93          	mv	s7,s11
   11b44:	00070d93          	mv	s11,a4
   11b48:	d40ff06f          	j	11088 <_vfprintf_r+0x84c>
   11b4c:	00098a13          	mv	s4,s3
   11b50:	95dff06f          	j	114ac <_vfprintf_r+0xc70>
   11b54:	0e812703          	lw	a4,232(sp)
   11b58:	00013c97          	auipc	s9,0x13
   11b5c:	23cc8c93          	addi	s9,s9,572 # 24d94 <blanks.4504>
   11b60:	0cdc5863          	bge	s8,a3,11c30 <_vfprintf_r+0x13f4>
   11b64:	05212623          	sw	s2,76(sp)
   11b68:	000d8613          	mv	a2,s11
   11b6c:	000c8913          	mv	s2,s9
   11b70:	000d0d93          	mv	s11,s10
   11b74:	000a0c93          	mv	s9,s4
   11b78:	000b8d13          	mv	s10,s7
   11b7c:	00098a13          	mv	s4,s3
   11b80:	000b0b93          	mv	s7,s6
   11b84:	00040993          	mv	s3,s0
   11b88:	00048b13          	mv	s6,s1
   11b8c:	00700f93          	li	t6,7
   11b90:	03e12a23          	sw	t5,52(sp)
   11b94:	05d12423          	sw	t4,72(sp)
   11b98:	00412483          	lw	s1,4(sp)
   11b9c:	00068413          	mv	s0,a3
   11ba0:	00c0006f          	j	11bac <_vfprintf_r+0x1370>
   11ba4:	ff040413          	addi	s0,s0,-16
   11ba8:	048c5a63          	bge	s8,s0,11bfc <_vfprintf_r+0x13c0>
   11bac:	01078793          	addi	a5,a5,16
   11bb0:	00170713          	addi	a4,a4,1
   11bb4:	01262023          	sw	s2,0(a2)
   11bb8:	01862223          	sw	s8,4(a2)
   11bbc:	0ef12623          	sw	a5,236(sp)
   11bc0:	0ee12423          	sw	a4,232(sp)
   11bc4:	00860613          	addi	a2,a2,8
   11bc8:	fcefdee3          	bge	t6,a4,11ba4 <_vfprintf_r+0x1368>
   11bcc:	0e410613          	addi	a2,sp,228
   11bd0:	00048593          	mv	a1,s1
   11bd4:	000a8513          	mv	a0,s5
   11bd8:	3080a0ef          	jal	ra,1bee0 <__sprint_r>
   11bdc:	00050463          	beqz	a0,11be4 <_vfprintf_r+0x13a8>
   11be0:	f15fe06f          	j	10af4 <_vfprintf_r+0x2b8>
   11be4:	ff040413          	addi	s0,s0,-16
   11be8:	0ec12783          	lw	a5,236(sp)
   11bec:	0e812703          	lw	a4,232(sp)
   11bf0:	10c10613          	addi	a2,sp,268
   11bf4:	00700f93          	li	t6,7
   11bf8:	fa8c4ae3          	blt	s8,s0,11bac <_vfprintf_r+0x1370>
   11bfc:	00040693          	mv	a3,s0
   11c00:	03412f03          	lw	t5,52(sp)
   11c04:	00098413          	mv	s0,s3
   11c08:	04812e83          	lw	t4,72(sp)
   11c0c:	000a0993          	mv	s3,s4
   11c10:	000c8a13          	mv	s4,s9
   11c14:	00090c93          	mv	s9,s2
   11c18:	04c12903          	lw	s2,76(sp)
   11c1c:	000b0493          	mv	s1,s6
   11c20:	000b8b13          	mv	s6,s7
   11c24:	000d0b93          	mv	s7,s10
   11c28:	000d8d13          	mv	s10,s11
   11c2c:	00060d93          	mv	s11,a2
   11c30:	00d787b3          	add	a5,a5,a3
   11c34:	00170713          	addi	a4,a4,1
   11c38:	00dda223          	sw	a3,4(s11)
   11c3c:	019da023          	sw	s9,0(s11)
   11c40:	0ef12623          	sw	a5,236(sp)
   11c44:	0ee12423          	sw	a4,232(sp)
   11c48:	00700693          	li	a3,7
   11c4c:	008d8d93          	addi	s11,s11,8
   11c50:	aee6d663          	bge	a3,a4,10f3c <_vfprintf_r+0x700>
   11c54:	00412583          	lw	a1,4(sp)
   11c58:	0e410613          	addi	a2,sp,228
   11c5c:	000a8513          	mv	a0,s5
   11c60:	05d12423          	sw	t4,72(sp)
   11c64:	03e12a23          	sw	t5,52(sp)
   11c68:	2780a0ef          	jal	ra,1bee0 <__sprint_r>
   11c6c:	00050463          	beqz	a0,11c74 <_vfprintf_r+0x1438>
   11c70:	e85fe06f          	j	10af4 <_vfprintf_r+0x2b8>
   11c74:	0ec12783          	lw	a5,236(sp)
   11c78:	10c10d93          	addi	s11,sp,268
   11c7c:	04812e83          	lw	t4,72(sp)
   11c80:	03412f03          	lw	t5,52(sp)
   11c84:	ab8ff06f          	j	10f3c <_vfprintf_r+0x700>
   11c88:	00412583          	lw	a1,4(sp)
   11c8c:	0e410613          	addi	a2,sp,228
   11c90:	000a8513          	mv	a0,s5
   11c94:	03d12a23          	sw	t4,52(sp)
   11c98:	2480a0ef          	jal	ra,1bee0 <__sprint_r>
   11c9c:	00050463          	beqz	a0,11ca4 <_vfprintf_r+0x1468>
   11ca0:	e55fe06f          	j	10af4 <_vfprintf_r+0x2b8>
   11ca4:	0ec12783          	lw	a5,236(sp)
   11ca8:	10c10d93          	addi	s11,sp,268
   11cac:	03412e83          	lw	t4,52(sp)
   11cb0:	af8ff06f          	j	10fa8 <_vfprintf_r+0x76c>
   11cb4:	0cc12683          	lw	a3,204(sp)
   11cb8:	42d05e63          	blez	a3,120f4 <_vfprintf_r+0x18b8>
   11cbc:	01812703          	lw	a4,24(sp)
   11cc0:	01412683          	lw	a3,20(sp)
   11cc4:	00070413          	mv	s0,a4
   11cc8:	28e6cc63          	blt	a3,a4,11f60 <_vfprintf_r+0x1724>
   11ccc:	02805663          	blez	s0,11cf8 <_vfprintf_r+0x14bc>
   11cd0:	0e812703          	lw	a4,232(sp)
   11cd4:	008787b3          	add	a5,a5,s0
   11cd8:	01ada023          	sw	s10,0(s11)
   11cdc:	00170713          	addi	a4,a4,1
   11ce0:	008da223          	sw	s0,4(s11)
   11ce4:	0ef12623          	sw	a5,236(sp)
   11ce8:	0ee12423          	sw	a4,232(sp)
   11cec:	00700693          	li	a3,7
   11cf0:	008d8d93          	addi	s11,s11,8
   11cf4:	1ee6cee3          	blt	a3,a4,126f0 <_vfprintf_r+0x1eb4>
   11cf8:	fff44713          	not	a4,s0
   11cfc:	41f75713          	srai	a4,a4,0x1f
   11d00:	00e47433          	and	s0,s0,a4
   11d04:	01412703          	lw	a4,20(sp)
   11d08:	40870433          	sub	s0,a4,s0
   11d0c:	32804263          	bgtz	s0,12030 <_vfprintf_r+0x17f4>
   11d10:	01412683          	lw	a3,20(sp)
   11d14:	4009f713          	andi	a4,s3,1024
   11d18:	00dd0b33          	add	s6,s10,a3
   11d1c:	7c071663          	bnez	a4,124e8 <_vfprintf_r+0x1cac>
   11d20:	0cc12403          	lw	s0,204(sp)
   11d24:	01812703          	lw	a4,24(sp)
   11d28:	00e44663          	blt	s0,a4,11d34 <_vfprintf_r+0x14f8>
   11d2c:	0019f713          	andi	a4,s3,1
   11d30:	1e0706e3          	beqz	a4,1271c <_vfprintf_r+0x1ee0>
   11d34:	03012703          	lw	a4,48(sp)
   11d38:	02812683          	lw	a3,40(sp)
   11d3c:	008d8d93          	addi	s11,s11,8
   11d40:	feedac23          	sw	a4,-8(s11)
   11d44:	0e812703          	lw	a4,232(sp)
   11d48:	00d787b3          	add	a5,a5,a3
   11d4c:	feddae23          	sw	a3,-4(s11)
   11d50:	00170713          	addi	a4,a4,1
   11d54:	0ef12623          	sw	a5,236(sp)
   11d58:	0ee12423          	sw	a4,232(sp)
   11d5c:	00700693          	li	a3,7
   11d60:	00e6d463          	bge	a3,a4,11d68 <_vfprintf_r+0x152c>
   11d64:	0700106f          	j	12dd4 <_vfprintf_r+0x2598>
   11d68:	01812683          	lw	a3,24(sp)
   11d6c:	00dd0733          	add	a4,s10,a3
   11d70:	40868433          	sub	s0,a3,s0
   11d74:	41670733          	sub	a4,a4,s6
   11d78:	00040b93          	mv	s7,s0
   11d7c:	00875463          	bge	a4,s0,11d84 <_vfprintf_r+0x1548>
   11d80:	00070b93          	mv	s7,a4
   11d84:	03705863          	blez	s7,11db4 <_vfprintf_r+0x1578>
   11d88:	0e812703          	lw	a4,232(sp)
   11d8c:	017787b3          	add	a5,a5,s7
   11d90:	016da023          	sw	s6,0(s11)
   11d94:	00170713          	addi	a4,a4,1
   11d98:	017da223          	sw	s7,4(s11)
   11d9c:	0ef12623          	sw	a5,236(sp)
   11da0:	0ee12423          	sw	a4,232(sp)
   11da4:	00700693          	li	a3,7
   11da8:	008d8d93          	addi	s11,s11,8
   11dac:	00e6d463          	bge	a3,a4,11db4 <_vfprintf_r+0x1578>
   11db0:	0ac0106f          	j	12e5c <_vfprintf_r+0x2620>
   11db4:	fffbc713          	not	a4,s7
   11db8:	41f75713          	srai	a4,a4,0x1f
   11dbc:	00ebfbb3          	and	s7,s7,a4
   11dc0:	41740433          	sub	s0,s0,s7
   11dc4:	a2805263          	blez	s0,10fe8 <_vfprintf_r+0x7ac>
   11dc8:	0e812703          	lw	a4,232(sp)
   11dcc:	4c8c5263          	bge	s8,s0,12290 <_vfprintf_r+0x1a54>
   11dd0:	00700b93          	li	s7,7
   11dd4:	00412b03          	lw	s6,4(sp)
   11dd8:	00c0006f          	j	11de4 <_vfprintf_r+0x15a8>
   11ddc:	ff040413          	addi	s0,s0,-16
   11de0:	4a8c5863          	bge	s8,s0,12290 <_vfprintf_r+0x1a54>
   11de4:	01078793          	addi	a5,a5,16
   11de8:	00170713          	addi	a4,a4,1
   11dec:	00013697          	auipc	a3,0x13
   11df0:	fb868693          	addi	a3,a3,-72 # 24da4 <zeroes.4505>
   11df4:	00dda023          	sw	a3,0(s11)
   11df8:	018da223          	sw	s8,4(s11)
   11dfc:	0ef12623          	sw	a5,236(sp)
   11e00:	0ee12423          	sw	a4,232(sp)
   11e04:	008d8d93          	addi	s11,s11,8
   11e08:	fcebdae3          	bge	s7,a4,11ddc <_vfprintf_r+0x15a0>
   11e0c:	0e410613          	addi	a2,sp,228
   11e10:	000b0593          	mv	a1,s6
   11e14:	000a8513          	mv	a0,s5
   11e18:	0c80a0ef          	jal	ra,1bee0 <__sprint_r>
   11e1c:	00050463          	beqz	a0,11e24 <_vfprintf_r+0x15e8>
   11e20:	cd5fe06f          	j	10af4 <_vfprintf_r+0x2b8>
   11e24:	0ec12783          	lw	a5,236(sp)
   11e28:	0e812703          	lw	a4,232(sp)
   11e2c:	10c10d93          	addi	s11,sp,268
   11e30:	fadff06f          	j	11ddc <_vfprintf_r+0x15a0>
   11e34:	a4e05a63          	blez	a4,11088 <_vfprintf_r+0x84c>
   11e38:	00ec4463          	blt	s8,a4,11e40 <_vfprintf_r+0x1604>
   11e3c:	4880106f          	j	132c4 <_vfprintf_r+0x2a88>
   11e40:	00700b13          	li	s6,7
   11e44:	00070d93          	mv	s11,a4
   11e48:	00412d03          	lw	s10,4(sp)
   11e4c:	00060413          	mv	s0,a2
   11e50:	0100006f          	j	11e60 <_vfprintf_r+0x1624>
   11e54:	ff0d8d93          	addi	s11,s11,-16
   11e58:	11bc5a63          	bge	s8,s11,11f6c <_vfprintf_r+0x1730>
   11e5c:	00140413          	addi	s0,s0,1
   11e60:	010c8c93          	addi	s9,s9,16
   11e64:	00013797          	auipc	a5,0x13
   11e68:	f4078793          	addi	a5,a5,-192 # 24da4 <zeroes.4505>
   11e6c:	00fba023          	sw	a5,0(s7)
   11e70:	018ba223          	sw	s8,4(s7)
   11e74:	0f912623          	sw	s9,236(sp)
   11e78:	0e812423          	sw	s0,232(sp)
   11e7c:	008b8b93          	addi	s7,s7,8
   11e80:	fc8b5ae3          	bge	s6,s0,11e54 <_vfprintf_r+0x1618>
   11e84:	0e410613          	addi	a2,sp,228
   11e88:	000d0593          	mv	a1,s10
   11e8c:	000a8513          	mv	a0,s5
   11e90:	0500a0ef          	jal	ra,1bee0 <__sprint_r>
   11e94:	00050463          	beqz	a0,11e9c <_vfprintf_r+0x1660>
   11e98:	c5dfe06f          	j	10af4 <_vfprintf_r+0x2b8>
   11e9c:	0ec12c83          	lw	s9,236(sp)
   11ea0:	0e812403          	lw	s0,232(sp)
   11ea4:	10c10b93          	addi	s7,sp,268
   11ea8:	fadff06f          	j	11e54 <_vfprintf_r+0x1618>
   11eac:	03000793          	li	a5,48
   11eb0:	1af107a3          	sb	a5,431(sp)
   11eb4:	1af10d13          	addi	s10,sp,431
   11eb8:	d21fe06f          	j	10bd8 <_vfprintf_r+0x39c>
   11ebc:	2009f793          	andi	a5,s3,512
   11ec0:	0c0798e3          	bnez	a5,12790 <_vfprintf_r+0x1f54>
   11ec4:	00000b93          	li	s7,0
   11ec8:	cc5fe06f          	j	10b8c <_vfprintf_r+0x350>
   11ecc:	00c12703          	lw	a4,12(sp)
   11ed0:	00072783          	lw	a5,0(a4)
   11ed4:	00470713          	addi	a4,a4,4
   11ed8:	00e12623          	sw	a4,12(sp)
   11edc:	0007a603          	lw	a2,0(a5)
   11ee0:	0047a683          	lw	a3,4(a5)
   11ee4:	0087a703          	lw	a4,8(a5)
   11ee8:	00c7a783          	lw	a5,12(a5)
   11eec:	0ec12823          	sw	a2,240(sp)
   11ef0:	0ed12a23          	sw	a3,244(sp)
   11ef4:	0ee12c23          	sw	a4,248(sp)
   11ef8:	0ef12e23          	sw	a5,252(sp)
   11efc:	ac4ff06f          	j	111c0 <_vfprintf_r+0x984>
   11f00:	03000713          	li	a4,48
   11f04:	0029e993          	ori	s3,s3,2
   11f08:	0ce10423          	sb	a4,200(sp)
   11f0c:	0c8104a3          	sb	s0,201(sp)
   11f10:	bff9fa13          	andi	s4,s3,-1025
   11f14:	00200713          	li	a4,2
   11f18:	c91fe06f          	j	10ba8 <_vfprintf_r+0x36c>
   11f1c:	00812603          	lw	a2,8(sp)
   11f20:	0006a783          	lw	a5,0(a3)
   11f24:	00e12623          	sw	a4,12(sp)
   11f28:	41f65693          	srai	a3,a2,0x1f
   11f2c:	00c7a023          	sw	a2,0(a5)
   11f30:	00d7a223          	sw	a3,4(a5)
   11f34:	00090d13          	mv	s10,s2
   11f38:	e05fe06f          	j	10d3c <_vfprintf_r+0x500>
   11f3c:	03c12783          	lw	a5,60(sp)
   11f40:	00094403          	lbu	s0,0(s2)
   11f44:	00079463          	bnez	a5,11f4c <_vfprintf_r+0x1710>
   11f48:	aa9fe06f          	j	109f0 <_vfprintf_r+0x1b4>
   11f4c:	0007c783          	lbu	a5,0(a5)
   11f50:	00079463          	bnez	a5,11f58 <_vfprintf_r+0x171c>
   11f54:	a9dfe06f          	j	109f0 <_vfprintf_r+0x1b4>
   11f58:	4009e993          	ori	s3,s3,1024
   11f5c:	a95fe06f          	j	109f0 <_vfprintf_r+0x1b4>
   11f60:	00068413          	mv	s0,a3
   11f64:	d68046e3          	bgtz	s0,11cd0 <_vfprintf_r+0x1494>
   11f68:	d91ff06f          	j	11cf8 <_vfprintf_r+0x14bc>
   11f6c:	000d8713          	mv	a4,s11
   11f70:	00140b13          	addi	s6,s0,1
   11f74:	008b8613          	addi	a2,s7,8
   11f78:	00ec8cb3          	add	s9,s9,a4
   11f7c:	00013797          	auipc	a5,0x13
   11f80:	e2878793          	addi	a5,a5,-472 # 24da4 <zeroes.4505>
   11f84:	00eba223          	sw	a4,4(s7)
   11f88:	00fba023          	sw	a5,0(s7)
   11f8c:	0f912623          	sw	s9,236(sp)
   11f90:	0f612423          	sw	s6,232(sp)
   11f94:	00700713          	li	a4,7
   11f98:	71675a63          	bge	a4,s6,126ac <_vfprintf_r+0x1e70>
   11f9c:	00412583          	lw	a1,4(sp)
   11fa0:	0e410613          	addi	a2,sp,228
   11fa4:	000a8513          	mv	a0,s5
   11fa8:	739090ef          	jal	ra,1bee0 <__sprint_r>
   11fac:	00050463          	beqz	a0,11fb4 <_vfprintf_r+0x1778>
   11fb0:	b45fe06f          	j	10af4 <_vfprintf_r+0x2b8>
   11fb4:	0e812683          	lw	a3,232(sp)
   11fb8:	0ec12c83          	lw	s9,236(sp)
   11fbc:	11410d93          	addi	s11,sp,276
   11fc0:	00168b13          	addi	s6,a3,1
   11fc4:	10c10b93          	addi	s7,sp,268
   11fc8:	8c0ff06f          	j	11088 <_vfprintf_r+0x84c>
   11fcc:	00412583          	lw	a1,4(sp)
   11fd0:	0e410613          	addi	a2,sp,228
   11fd4:	000a8513          	mv	a0,s5
   11fd8:	709090ef          	jal	ra,1bee0 <__sprint_r>
   11fdc:	00050463          	beqz	a0,11fe4 <_vfprintf_r+0x17a8>
   11fe0:	b15fe06f          	j	10af4 <_vfprintf_r+0x2b8>
   11fe4:	0ec12783          	lw	a5,236(sp)
   11fe8:	10c10d93          	addi	s11,sp,268
   11fec:	81dff06f          	j	11808 <_vfprintf_r+0xfcc>
   11ff0:	00194403          	lbu	s0,1(s2)
   11ff4:	2009e993          	ori	s3,s3,512
   11ff8:	00190913          	addi	s2,s2,1
   11ffc:	9f5fe06f          	j	109f0 <_vfprintf_r+0x1b4>
   12000:	00194403          	lbu	s0,1(s2)
   12004:	0209e993          	ori	s3,s3,32
   12008:	00190913          	addi	s2,s2,1
   1200c:	9e5fe06f          	j	109f0 <_vfprintf_r+0x1b4>
   12010:	00600793          	li	a5,6
   12014:	000b0b93          	mv	s7,s6
   12018:	6f67ee63          	bltu	a5,s6,12714 <_vfprintf_r+0x1ed8>
   1201c:	000b8a13          	mv	s4,s7
   12020:	01912623          	sw	s9,12(sp)
   12024:	00013d17          	auipc	s10,0x13
   12028:	dc8d0d13          	addi	s10,s10,-568 # 24dec <zeroes.4505+0x48>
   1202c:	eddfe06f          	j	10f08 <_vfprintf_r+0x6cc>
   12030:	0e812703          	lw	a4,232(sp)
   12034:	468c5263          	bge	s8,s0,12498 <_vfprintf_r+0x1c5c>
   12038:	00700b93          	li	s7,7
   1203c:	00412b03          	lw	s6,4(sp)
   12040:	00c0006f          	j	1204c <_vfprintf_r+0x1810>
   12044:	ff040413          	addi	s0,s0,-16
   12048:	448c5863          	bge	s8,s0,12498 <_vfprintf_r+0x1c5c>
   1204c:	01078793          	addi	a5,a5,16
   12050:	00170713          	addi	a4,a4,1
   12054:	00013697          	auipc	a3,0x13
   12058:	d5068693          	addi	a3,a3,-688 # 24da4 <zeroes.4505>
   1205c:	00dda023          	sw	a3,0(s11)
   12060:	018da223          	sw	s8,4(s11)
   12064:	0ef12623          	sw	a5,236(sp)
   12068:	0ee12423          	sw	a4,232(sp)
   1206c:	008d8d93          	addi	s11,s11,8
   12070:	fcebdae3          	bge	s7,a4,12044 <_vfprintf_r+0x1808>
   12074:	0e410613          	addi	a2,sp,228
   12078:	000b0593          	mv	a1,s6
   1207c:	000a8513          	mv	a0,s5
   12080:	661090ef          	jal	ra,1bee0 <__sprint_r>
   12084:	00050463          	beqz	a0,1208c <_vfprintf_r+0x1850>
   12088:	a6dfe06f          	j	10af4 <_vfprintf_r+0x2b8>
   1208c:	0ec12783          	lw	a5,236(sp)
   12090:	0e812703          	lw	a4,232(sp)
   12094:	10c10d93          	addi	s11,sp,268
   12098:	fadff06f          	j	12044 <_vfprintf_r+0x1808>
   1209c:	000d0493          	mv	s1,s10
   120a0:	931fe06f          	j	109d0 <_vfprintf_r+0x194>
   120a4:	00412583          	lw	a1,4(sp)
   120a8:	0e410613          	addi	a2,sp,228
   120ac:	000a8513          	mv	a0,s5
   120b0:	631090ef          	jal	ra,1bee0 <__sprint_r>
   120b4:	00050463          	beqz	a0,120bc <_vfprintf_r+0x1880>
   120b8:	a3dfe06f          	j	10af4 <_vfprintf_r+0x2b8>
   120bc:	0ec12c83          	lw	s9,236(sp)
   120c0:	0e812403          	lw	s0,232(sp)
   120c4:	10c10b93          	addi	s7,sp,268
   120c8:	9c1ff06f          	j	11a88 <_vfprintf_r+0x124c>
   120cc:	00412583          	lw	a1,4(sp)
   120d0:	0e410613          	addi	a2,sp,228
   120d4:	000a8513          	mv	a0,s5
   120d8:	609090ef          	jal	ra,1bee0 <__sprint_r>
   120dc:	00050463          	beqz	a0,120e4 <_vfprintf_r+0x18a8>
   120e0:	a15fe06f          	j	10af4 <_vfprintf_r+0x2b8>
   120e4:	0ec12c83          	lw	s9,236(sp)
   120e8:	0e812403          	lw	s0,232(sp)
   120ec:	10c10b93          	addi	s7,sp,268
   120f0:	9c5ff06f          	j	11ab4 <_vfprintf_r+0x1278>
   120f4:	0e812703          	lw	a4,232(sp)
   120f8:	00013617          	auipc	a2,0x13
   120fc:	cfc60613          	addi	a2,a2,-772 # 24df4 <zeroes.4505+0x50>
   12100:	00cda023          	sw	a2,0(s11)
   12104:	00178793          	addi	a5,a5,1
   12108:	00100613          	li	a2,1
   1210c:	00170713          	addi	a4,a4,1
   12110:	00cda223          	sw	a2,4(s11)
   12114:	0ef12623          	sw	a5,236(sp)
   12118:	0ee12423          	sw	a4,232(sp)
   1211c:	00700613          	li	a2,7
   12120:	008d8d93          	addi	s11,s11,8
   12124:	58e64c63          	blt	a2,a4,126bc <_vfprintf_r+0x1e80>
   12128:	22069a63          	bnez	a3,1235c <_vfprintf_r+0x1b20>
   1212c:	01812683          	lw	a3,24(sp)
   12130:	0019f713          	andi	a4,s3,1
   12134:	00d76733          	or	a4,a4,a3
   12138:	00071463          	bnez	a4,12140 <_vfprintf_r+0x1904>
   1213c:	eadfe06f          	j	10fe8 <_vfprintf_r+0x7ac>
   12140:	03012703          	lw	a4,48(sp)
   12144:	02812683          	lw	a3,40(sp)
   12148:	008d8893          	addi	a7,s11,8
   1214c:	00eda023          	sw	a4,0(s11)
   12150:	0e812703          	lw	a4,232(sp)
   12154:	00f687b3          	add	a5,a3,a5
   12158:	00dda223          	sw	a3,4(s11)
   1215c:	00170713          	addi	a4,a4,1
   12160:	0ef12623          	sw	a5,236(sp)
   12164:	0ee12423          	sw	a4,232(sp)
   12168:	00700693          	li	a3,7
   1216c:	62e6cc63          	blt	a3,a4,127a4 <_vfprintf_r+0x1f68>
   12170:	01812683          	lw	a3,24(sp)
   12174:	00170713          	addi	a4,a4,1
   12178:	01a8a023          	sw	s10,0(a7)
   1217c:	00f687b3          	add	a5,a3,a5
   12180:	00d8a223          	sw	a3,4(a7)
   12184:	0ef12623          	sw	a5,236(sp)
   12188:	0ee12423          	sw	a4,232(sp)
   1218c:	00700693          	li	a3,7
   12190:	00888d93          	addi	s11,a7,8
   12194:	00e6c463          	blt	a3,a4,1219c <_vfprintf_r+0x1960>
   12198:	e51fe06f          	j	10fe8 <_vfprintf_r+0x7ac>
   1219c:	f11fe06f          	j	110ac <_vfprintf_r+0x870>
   121a0:	1b010d13          	addi	s10,sp,432
   121a4:	00000793          	li	a5,0
   121a8:	400a7993          	andi	s3,s4,1024
   121ac:	01212823          	sw	s2,16(sp)
   121b0:	00812a23          	sw	s0,20(sp)
   121b4:	000d0913          	mv	s2,s10
   121b8:	00078413          	mv	s0,a5
   121bc:	000a8d13          	mv	s10,s5
   121c0:	000a0a93          	mv	s5,s4
   121c4:	000b8a13          	mv	s4,s7
   121c8:	000b0b93          	mv	s7,s6
   121cc:	00048b13          	mv	s6,s1
   121d0:	03c12483          	lw	s1,60(sp)
   121d4:	0240006f          	j	121f8 <_vfprintf_r+0x19bc>
   121d8:	00a00613          	li	a2,10
   121dc:	00000693          	li	a3,0
   121e0:	000c8513          	mv	a0,s9
   121e4:	000a0593          	mv	a1,s4
   121e8:	4250d0ef          	jal	ra,1fe0c <__udivdi3>
   121ec:	2e0a0ce3          	beqz	s4,12ce4 <_vfprintf_r+0x24a8>
   121f0:	00050c93          	mv	s9,a0
   121f4:	00058a13          	mv	s4,a1
   121f8:	00a00613          	li	a2,10
   121fc:	00000693          	li	a3,0
   12200:	000c8513          	mv	a0,s9
   12204:	000a0593          	mv	a1,s4
   12208:	1d80e0ef          	jal	ra,203e0 <__umoddi3>
   1220c:	03050513          	addi	a0,a0,48
   12210:	fea90fa3          	sb	a0,-1(s2)
   12214:	00140413          	addi	s0,s0,1
   12218:	fff90913          	addi	s2,s2,-1
   1221c:	fa098ee3          	beqz	s3,121d8 <_vfprintf_r+0x199c>
   12220:	0004c683          	lbu	a3,0(s1)
   12224:	fad41ae3          	bne	s0,a3,121d8 <_vfprintf_r+0x199c>
   12228:	0ff00793          	li	a5,255
   1222c:	faf406e3          	beq	s0,a5,121d8 <_vfprintf_r+0x199c>
   12230:	260a1ae3          	bnez	s4,12ca4 <_vfprintf_r+0x2468>
   12234:	00900793          	li	a5,9
   12238:	2797e6e3          	bltu	a5,s9,12ca4 <_vfprintf_r+0x2468>
   1223c:	000a8a13          	mv	s4,s5
   12240:	1b010793          	addi	a5,sp,432
   12244:	000d0a93          	mv	s5,s10
   12248:	00090d13          	mv	s10,s2
   1224c:	00812c23          	sw	s0,24(sp)
   12250:	02912e23          	sw	s1,60(sp)
   12254:	01412403          	lw	s0,20(sp)
   12258:	000b0493          	mv	s1,s6
   1225c:	01012903          	lw	s2,16(sp)
   12260:	000b8b13          	mv	s6,s7
   12264:	000a0993          	mv	s3,s4
   12268:	41a78bb3          	sub	s7,a5,s10
   1226c:	96dfe06f          	j	10bd8 <_vfprintf_r+0x39c>
   12270:	00412583          	lw	a1,4(sp)
   12274:	0e410613          	addi	a2,sp,228
   12278:	000a8513          	mv	a0,s5
   1227c:	465090ef          	jal	ra,1bee0 <__sprint_r>
   12280:	00050463          	beqz	a0,12288 <_vfprintf_r+0x1a4c>
   12284:	871fe06f          	j	10af4 <_vfprintf_r+0x2b8>
   12288:	10c10d93          	addi	s11,sp,268
   1228c:	d2cff06f          	j	117b8 <_vfprintf_r+0xf7c>
   12290:	00013697          	auipc	a3,0x13
   12294:	b1468693          	addi	a3,a3,-1260 # 24da4 <zeroes.4505>
   12298:	00dda023          	sw	a3,0(s11)
   1229c:	008da223          	sw	s0,4(s11)
   122a0:	008787b3          	add	a5,a5,s0
   122a4:	00170713          	addi	a4,a4,1
   122a8:	0ef12623          	sw	a5,236(sp)
   122ac:	0ee12423          	sw	a4,232(sp)
   122b0:	00700693          	li	a3,7
   122b4:	00e6c463          	blt	a3,a4,122bc <_vfprintf_r+0x1a80>
   122b8:	d2dfe06f          	j	10fe4 <_vfprintf_r+0x7a8>
   122bc:	df1fe06f          	j	110ac <_vfprintf_r+0x870>
   122c0:	0f012783          	lw	a5,240(sp)
   122c4:	0a010593          	addi	a1,sp,160
   122c8:	0b010513          	addi	a0,sp,176
   122cc:	0af12823          	sw	a5,176(sp)
   122d0:	0f412783          	lw	a5,244(sp)
   122d4:	0a012023          	sw	zero,160(sp)
   122d8:	0a012223          	sw	zero,164(sp)
   122dc:	0af12a23          	sw	a5,180(sp)
   122e0:	0f812783          	lw	a5,248(sp)
   122e4:	0a012423          	sw	zero,168(sp)
   122e8:	0a012623          	sw	zero,172(sp)
   122ec:	0af12c23          	sw	a5,184(sp)
   122f0:	0fc12783          	lw	a5,252(sp)
   122f4:	0af12e23          	sw	a5,188(sp)
   122f8:	6280f0ef          	jal	ra,21920 <__letf2>
   122fc:	2c0546e3          	bltz	a0,12dc8 <_vfprintf_r+0x258c>
   12300:	0c714783          	lbu	a5,199(sp)
   12304:	04700713          	li	a4,71
   12308:	00013d17          	auipc	s10,0x13
   1230c:	aacd0d13          	addi	s10,s10,-1364 # 24db4 <zeroes.4505+0x10>
   12310:	3c874a63          	blt	a4,s0,126e4 <_vfprintf_r+0x1ea8>
   12314:	00012823          	sw	zero,16(sp)
   12318:	02012223          	sw	zero,36(sp)
   1231c:	02012023          	sw	zero,32(sp)
   12320:	00012a23          	sw	zero,20(sp)
   12324:	f7f9f993          	andi	s3,s3,-129
   12328:	00300a13          	li	s4,3
   1232c:	00300b93          	li	s7,3
   12330:	00000b13          	li	s6,0
   12334:	00078463          	beqz	a5,1233c <_vfprintf_r+0x1b00>
   12338:	8c5fe06f          	j	10bfc <_vfprintf_r+0x3c0>
   1233c:	be1fe06f          	j	10f1c <_vfprintf_r+0x6e0>
   12340:	00c12783          	lw	a5,12(sp)
   12344:	00090d13          	mv	s10,s2
   12348:	0007a783          	lw	a5,0(a5)
   1234c:	00e12623          	sw	a4,12(sp)
   12350:	00812703          	lw	a4,8(sp)
   12354:	00e7a023          	sw	a4,0(a5)
   12358:	9e5fe06f          	j	10d3c <_vfprintf_r+0x500>
   1235c:	03012703          	lw	a4,48(sp)
   12360:	02812603          	lw	a2,40(sp)
   12364:	008d8893          	addi	a7,s11,8
   12368:	00eda023          	sw	a4,0(s11)
   1236c:	0e812703          	lw	a4,232(sp)
   12370:	00f607b3          	add	a5,a2,a5
   12374:	00cda223          	sw	a2,4(s11)
   12378:	00170713          	addi	a4,a4,1
   1237c:	0ef12623          	sw	a5,236(sp)
   12380:	0ee12423          	sw	a4,232(sp)
   12384:	00700613          	li	a2,7
   12388:	40e64e63          	blt	a2,a4,127a4 <_vfprintf_r+0x1f68>
   1238c:	de06d2e3          	bgez	a3,12170 <_vfprintf_r+0x1934>
   12390:	ff000613          	li	a2,-16
   12394:	40d00433          	neg	s0,a3
   12398:	32c6d2e3          	bge	a3,a2,12ebc <_vfprintf_r+0x2680>
   1239c:	00700b93          	li	s7,7
   123a0:	00412b03          	lw	s6,4(sp)
   123a4:	00c0006f          	j	123b0 <_vfprintf_r+0x1b74>
   123a8:	ff040413          	addi	s0,s0,-16
   123ac:	308c58e3          	bge	s8,s0,12ebc <_vfprintf_r+0x2680>
   123b0:	01078793          	addi	a5,a5,16
   123b4:	00170713          	addi	a4,a4,1
   123b8:	00013697          	auipc	a3,0x13
   123bc:	9ec68693          	addi	a3,a3,-1556 # 24da4 <zeroes.4505>
   123c0:	00d8a023          	sw	a3,0(a7)
   123c4:	0188a223          	sw	s8,4(a7)
   123c8:	0ef12623          	sw	a5,236(sp)
   123cc:	0ee12423          	sw	a4,232(sp)
   123d0:	00888893          	addi	a7,a7,8
   123d4:	fcebdae3          	bge	s7,a4,123a8 <_vfprintf_r+0x1b6c>
   123d8:	0e410613          	addi	a2,sp,228
   123dc:	000b0593          	mv	a1,s6
   123e0:	000a8513          	mv	a0,s5
   123e4:	2fd090ef          	jal	ra,1bee0 <__sprint_r>
   123e8:	00050463          	beqz	a0,123f0 <_vfprintf_r+0x1bb4>
   123ec:	f08fe06f          	j	10af4 <_vfprintf_r+0x2b8>
   123f0:	0ec12783          	lw	a5,236(sp)
   123f4:	0e812703          	lw	a4,232(sp)
   123f8:	10c10893          	addi	a7,sp,268
   123fc:	fadff06f          	j	123a8 <_vfprintf_r+0x1b6c>
   12400:	000d0513          	mv	a0,s10
   12404:	5fd060ef          	jal	ra,19200 <strlen>
   12408:	00050b93          	mv	s7,a0
   1240c:	a75fe06f          	j	10e80 <_vfprintf_r+0x644>
   12410:	2009f793          	andi	a5,s3,512
   12414:	36078063          	beqz	a5,12774 <_vfprintf_r+0x1f38>
   12418:	00c12783          	lw	a5,12(sp)
   1241c:	00098a13          	mv	s4,s3
   12420:	00e12623          	sw	a4,12(sp)
   12424:	00078c83          	lb	s9,0(a5)
   12428:	41fcdb93          	srai	s7,s9,0x1f
   1242c:	000b8713          	mv	a4,s7
   12430:	9a1fe06f          	j	10dd0 <_vfprintf_r+0x594>
   12434:	2009f793          	andi	a5,s3,512
   12438:	32078863          	beqz	a5,12768 <_vfprintf_r+0x1f2c>
   1243c:	0ffcfc93          	andi	s9,s9,255
   12440:	00000b93          	li	s7,0
   12444:	00e12623          	sw	a4,12(sp)
   12448:	a5cff06f          	j	116a4 <_vfprintf_r+0xe68>
   1244c:	2009f793          	andi	a5,s3,512
   12450:	30078263          	beqz	a5,12754 <_vfprintf_r+0x1f18>
   12454:	00e12623          	sw	a4,12(sp)
   12458:	0ffcfc93          	andi	s9,s9,255
   1245c:	00000b93          	li	s7,0
   12460:	00098a13          	mv	s4,s3
   12464:	00100713          	li	a4,1
   12468:	f40fe06f          	j	10ba8 <_vfprintf_r+0x36c>
   1246c:	0fc12783          	lw	a5,252(sp)
   12470:	3207d663          	bgez	a5,1279c <_vfprintf_r+0x1f60>
   12474:	02d00793          	li	a5,45
   12478:	0cf103a3          	sb	a5,199(sp)
   1247c:	04700713          	li	a4,71
   12480:	00013d17          	auipc	s10,0x13
   12484:	93cd0d13          	addi	s10,s10,-1732 # 24dbc <zeroes.4505+0x18>
   12488:	e88756e3          	bge	a4,s0,12314 <_vfprintf_r+0x1ad8>
   1248c:	00013d17          	auipc	s10,0x13
   12490:	934d0d13          	addi	s10,s10,-1740 # 24dc0 <zeroes.4505+0x1c>
   12494:	e81ff06f          	j	12314 <_vfprintf_r+0x1ad8>
   12498:	00013697          	auipc	a3,0x13
   1249c:	90c68693          	addi	a3,a3,-1780 # 24da4 <zeroes.4505>
   124a0:	008787b3          	add	a5,a5,s0
   124a4:	00170713          	addi	a4,a4,1
   124a8:	00dda023          	sw	a3,0(s11)
   124ac:	008da223          	sw	s0,4(s11)
   124b0:	0ef12623          	sw	a5,236(sp)
   124b4:	0ee12423          	sw	a4,232(sp)
   124b8:	00700693          	li	a3,7
   124bc:	008d8d93          	addi	s11,s11,8
   124c0:	84e6d8e3          	bge	a3,a4,11d10 <_vfprintf_r+0x14d4>
   124c4:	00412583          	lw	a1,4(sp)
   124c8:	0e410613          	addi	a2,sp,228
   124cc:	000a8513          	mv	a0,s5
   124d0:	211090ef          	jal	ra,1bee0 <__sprint_r>
   124d4:	00050463          	beqz	a0,124dc <_vfprintf_r+0x1ca0>
   124d8:	e1cfe06f          	j	10af4 <_vfprintf_r+0x2b8>
   124dc:	0ec12783          	lw	a5,236(sp)
   124e0:	10c10d93          	addi	s11,sp,268
   124e4:	82dff06f          	j	11d10 <_vfprintf_r+0x14d4>
   124e8:	01812703          	lw	a4,24(sp)
   124ec:	02012b83          	lw	s7,32(sp)
   124f0:	01212a23          	sw	s2,20(sp)
   124f4:	00ed0433          	add	s0,s10,a4
   124f8:	03312a23          	sw	s3,52(sp)
   124fc:	04912423          	sw	s1,72(sp)
   12500:	02412903          	lw	s2,36(sp)
   12504:	03412023          	sw	s4,32(sp)
   12508:	03a12223          	sw	s10,36(sp)
   1250c:	00700c93          	li	s9,7
   12510:	00040d13          	mv	s10,s0
   12514:	04012983          	lw	s3,64(sp)
   12518:	03c12483          	lw	s1,60(sp)
   1251c:	000d8693          	mv	a3,s11
   12520:	00412a03          	lw	s4,4(sp)
   12524:	04412403          	lw	s0,68(sp)
   12528:	080b8863          	beqz	s7,125b8 <_vfprintf_r+0x1d7c>
   1252c:	08091863          	bnez	s2,125bc <_vfprintf_r+0x1d80>
   12530:	fff48493          	addi	s1,s1,-1
   12534:	fffb8b93          	addi	s7,s7,-1
   12538:	0e812703          	lw	a4,232(sp)
   1253c:	013787b3          	add	a5,a5,s3
   12540:	0086a023          	sw	s0,0(a3)
   12544:	00170713          	addi	a4,a4,1
   12548:	0136a223          	sw	s3,4(a3)
   1254c:	0ef12623          	sw	a5,236(sp)
   12550:	0ee12423          	sw	a4,232(sp)
   12554:	00868693          	addi	a3,a3,8
   12558:	10ecc463          	blt	s9,a4,12660 <_vfprintf_r+0x1e24>
   1255c:	0004c603          	lbu	a2,0(s1)
   12560:	416d05b3          	sub	a1,s10,s6
   12564:	00060d93          	mv	s11,a2
   12568:	00c5d463          	bge	a1,a2,12570 <_vfprintf_r+0x1d34>
   1256c:	00058d93          	mv	s11,a1
   12570:	03b05663          	blez	s11,1259c <_vfprintf_r+0x1d60>
   12574:	0e812603          	lw	a2,232(sp)
   12578:	01b787b3          	add	a5,a5,s11
   1257c:	0166a023          	sw	s6,0(a3)
   12580:	00160613          	addi	a2,a2,1
   12584:	01b6a223          	sw	s11,4(a3)
   12588:	0ef12623          	sw	a5,236(sp)
   1258c:	0ec12423          	sw	a2,232(sp)
   12590:	0eccca63          	blt	s9,a2,12684 <_vfprintf_r+0x1e48>
   12594:	0004c603          	lbu	a2,0(s1)
   12598:	00868693          	addi	a3,a3,8
   1259c:	fffdc593          	not	a1,s11
   125a0:	41f5d593          	srai	a1,a1,0x1f
   125a4:	00bdf733          	and	a4,s11,a1
   125a8:	40e60db3          	sub	s11,a2,a4
   125ac:	01b04c63          	bgtz	s11,125c4 <_vfprintf_r+0x1d88>
   125b0:	00cb0b33          	add	s6,s6,a2
   125b4:	f60b9ce3          	bnez	s7,1252c <_vfprintf_r+0x1cf0>
   125b8:	5e090663          	beqz	s2,12ba4 <_vfprintf_r+0x2368>
   125bc:	fff90913          	addi	s2,s2,-1
   125c0:	f79ff06f          	j	12538 <_vfprintf_r+0x1cfc>
   125c4:	0e812603          	lw	a2,232(sp)
   125c8:	01bc4863          	blt	s8,s11,125d8 <_vfprintf_r+0x1d9c>
   125cc:	0600006f          	j	1262c <_vfprintf_r+0x1df0>
   125d0:	ff0d8d93          	addi	s11,s11,-16
   125d4:	05bc5c63          	bge	s8,s11,1262c <_vfprintf_r+0x1df0>
   125d8:	01078793          	addi	a5,a5,16
   125dc:	00160613          	addi	a2,a2,1
   125e0:	00012717          	auipc	a4,0x12
   125e4:	7c470713          	addi	a4,a4,1988 # 24da4 <zeroes.4505>
   125e8:	00e6a023          	sw	a4,0(a3)
   125ec:	0186a223          	sw	s8,4(a3)
   125f0:	0ef12623          	sw	a5,236(sp)
   125f4:	0ec12423          	sw	a2,232(sp)
   125f8:	00868693          	addi	a3,a3,8
   125fc:	fcccdae3          	bge	s9,a2,125d0 <_vfprintf_r+0x1d94>
   12600:	0e410613          	addi	a2,sp,228
   12604:	000a0593          	mv	a1,s4
   12608:	000a8513          	mv	a0,s5
   1260c:	0d5090ef          	jal	ra,1bee0 <__sprint_r>
   12610:	00050463          	beqz	a0,12618 <_vfprintf_r+0x1ddc>
   12614:	ce0fe06f          	j	10af4 <_vfprintf_r+0x2b8>
   12618:	ff0d8d93          	addi	s11,s11,-16
   1261c:	0ec12783          	lw	a5,236(sp)
   12620:	0e812603          	lw	a2,232(sp)
   12624:	10c10693          	addi	a3,sp,268
   12628:	fbbc48e3          	blt	s8,s11,125d8 <_vfprintf_r+0x1d9c>
   1262c:	01b787b3          	add	a5,a5,s11
   12630:	00160613          	addi	a2,a2,1
   12634:	00012717          	auipc	a4,0x12
   12638:	77070713          	addi	a4,a4,1904 # 24da4 <zeroes.4505>
   1263c:	00e6a023          	sw	a4,0(a3)
   12640:	01b6a223          	sw	s11,4(a3)
   12644:	0ef12623          	sw	a5,236(sp)
   12648:	0ec12423          	sw	a2,232(sp)
   1264c:	62ccc663          	blt	s9,a2,12c78 <_vfprintf_r+0x243c>
   12650:	0004c603          	lbu	a2,0(s1)
   12654:	00868693          	addi	a3,a3,8
   12658:	00cb0b33          	add	s6,s6,a2
   1265c:	f59ff06f          	j	125b4 <_vfprintf_r+0x1d78>
   12660:	0e410613          	addi	a2,sp,228
   12664:	000a0593          	mv	a1,s4
   12668:	000a8513          	mv	a0,s5
   1266c:	075090ef          	jal	ra,1bee0 <__sprint_r>
   12670:	00050463          	beqz	a0,12678 <_vfprintf_r+0x1e3c>
   12674:	c80fe06f          	j	10af4 <_vfprintf_r+0x2b8>
   12678:	0ec12783          	lw	a5,236(sp)
   1267c:	10c10693          	addi	a3,sp,268
   12680:	eddff06f          	j	1255c <_vfprintf_r+0x1d20>
   12684:	0e410613          	addi	a2,sp,228
   12688:	000a0593          	mv	a1,s4
   1268c:	000a8513          	mv	a0,s5
   12690:	051090ef          	jal	ra,1bee0 <__sprint_r>
   12694:	00050463          	beqz	a0,1269c <_vfprintf_r+0x1e60>
   12698:	c5cfe06f          	j	10af4 <_vfprintf_r+0x2b8>
   1269c:	0004c603          	lbu	a2,0(s1)
   126a0:	0ec12783          	lw	a5,236(sp)
   126a4:	10c10693          	addi	a3,sp,268
   126a8:	ef5ff06f          	j	1259c <_vfprintf_r+0x1d60>
   126ac:	001b0b13          	addi	s6,s6,1
   126b0:	00860d93          	addi	s11,a2,8
   126b4:	00060b93          	mv	s7,a2
   126b8:	9d1fe06f          	j	11088 <_vfprintf_r+0x84c>
   126bc:	00412583          	lw	a1,4(sp)
   126c0:	0e410613          	addi	a2,sp,228
   126c4:	000a8513          	mv	a0,s5
   126c8:	019090ef          	jal	ra,1bee0 <__sprint_r>
   126cc:	00050463          	beqz	a0,126d4 <_vfprintf_r+0x1e98>
   126d0:	c24fe06f          	j	10af4 <_vfprintf_r+0x2b8>
   126d4:	0cc12683          	lw	a3,204(sp)
   126d8:	0ec12783          	lw	a5,236(sp)
   126dc:	10c10d93          	addi	s11,sp,268
   126e0:	a49ff06f          	j	12128 <_vfprintf_r+0x18ec>
   126e4:	00012d17          	auipc	s10,0x12
   126e8:	6d4d0d13          	addi	s10,s10,1748 # 24db8 <zeroes.4505+0x14>
   126ec:	c29ff06f          	j	12314 <_vfprintf_r+0x1ad8>
   126f0:	00412583          	lw	a1,4(sp)
   126f4:	0e410613          	addi	a2,sp,228
   126f8:	000a8513          	mv	a0,s5
   126fc:	7e4090ef          	jal	ra,1bee0 <__sprint_r>
   12700:	00050463          	beqz	a0,12708 <_vfprintf_r+0x1ecc>
   12704:	bf0fe06f          	j	10af4 <_vfprintf_r+0x2b8>
   12708:	0ec12783          	lw	a5,236(sp)
   1270c:	10c10d93          	addi	s11,sp,268
   12710:	de8ff06f          	j	11cf8 <_vfprintf_r+0x14bc>
   12714:	00600b93          	li	s7,6
   12718:	905ff06f          	j	1201c <_vfprintf_r+0x17e0>
   1271c:	01812703          	lw	a4,24(sp)
   12720:	00ed0833          	add	a6,s10,a4
   12724:	40870433          	sub	s0,a4,s0
   12728:	41680bb3          	sub	s7,a6,s6
   1272c:	e9745463          	bge	s0,s7,11db4 <_vfprintf_r+0x1578>
   12730:	00040b93          	mv	s7,s0
   12734:	e80ff06f          	j	11db4 <_vfprintf_r+0x1578>
   12738:	00c12783          	lw	a5,12(sp)
   1273c:	00e12623          	sw	a4,12(sp)
   12740:	00812703          	lw	a4,8(sp)
   12744:	0007a783          	lw	a5,0(a5)
   12748:	00090d13          	mv	s10,s2
   1274c:	00e79023          	sh	a4,0(a5)
   12750:	decfe06f          	j	10d3c <_vfprintf_r+0x500>
   12754:	00e12623          	sw	a4,12(sp)
   12758:	00000b93          	li	s7,0
   1275c:	00098a13          	mv	s4,s3
   12760:	00100713          	li	a4,1
   12764:	c44fe06f          	j	10ba8 <_vfprintf_r+0x36c>
   12768:	00000b93          	li	s7,0
   1276c:	00e12623          	sw	a4,12(sp)
   12770:	f35fe06f          	j	116a4 <_vfprintf_r+0xe68>
   12774:	00c12783          	lw	a5,12(sp)
   12778:	00098a13          	mv	s4,s3
   1277c:	00e12623          	sw	a4,12(sp)
   12780:	0007ac83          	lw	s9,0(a5)
   12784:	41fcdb93          	srai	s7,s9,0x1f
   12788:	000b8713          	mv	a4,s7
   1278c:	e44fe06f          	j	10dd0 <_vfprintf_r+0x594>
   12790:	0ffcfc93          	andi	s9,s9,255
   12794:	00000b93          	li	s7,0
   12798:	bf4fe06f          	j	10b8c <_vfprintf_r+0x350>
   1279c:	0c714783          	lbu	a5,199(sp)
   127a0:	cddff06f          	j	1247c <_vfprintf_r+0x1c40>
   127a4:	00412583          	lw	a1,4(sp)
   127a8:	0e410613          	addi	a2,sp,228
   127ac:	000a8513          	mv	a0,s5
   127b0:	730090ef          	jal	ra,1bee0 <__sprint_r>
   127b4:	00050463          	beqz	a0,127bc <_vfprintf_r+0x1f80>
   127b8:	b3cfe06f          	j	10af4 <_vfprintf_r+0x2b8>
   127bc:	0cc12683          	lw	a3,204(sp)
   127c0:	0ec12783          	lw	a5,236(sp)
   127c4:	0e812703          	lw	a4,232(sp)
   127c8:	10c10893          	addi	a7,sp,268
   127cc:	9a06d2e3          	bgez	a3,12170 <_vfprintf_r+0x1934>
   127d0:	bc1ff06f          	j	12390 <_vfprintf_r+0x1b54>
   127d4:	03000793          	li	a5,48
   127d8:	0cf10423          	sb	a5,200(sp)
   127dc:	05800793          	li	a5,88
   127e0:	0029e713          	ori	a4,s3,2
   127e4:	0cf104a3          	sb	a5,201(sp)
   127e8:	04e12a23          	sw	a4,84(sp)
   127ec:	06300793          	li	a5,99
   127f0:	00012823          	sw	zero,16(sp)
   127f4:	14c10d13          	addi	s10,sp,332
   127f8:	7b67c263          	blt	a5,s6,12f9c <_vfprintf_r+0x2760>
   127fc:	0fc12e03          	lw	t3,252(sp)
   12800:	fdf47793          	andi	a5,s0,-33
   12804:	04f12423          	sw	a5,72(sp)
   12808:	04012e23          	sw	zero,92(sp)
   1280c:	1029e993          	ori	s3,s3,258
   12810:	0f012e83          	lw	t4,240(sp)
   12814:	0f412f03          	lw	t5,244(sp)
   12818:	0f812f83          	lw	t6,248(sp)
   1281c:	440e4463          	bltz	t3,12c64 <_vfprintf_r+0x2428>
   12820:	06100793          	li	a5,97
   12824:	0cf40ce3          	beq	s0,a5,130fc <_vfprintf_r+0x28c0>
   12828:	04100793          	li	a5,65
   1282c:	00f40463          	beq	s0,a5,12834 <_vfprintf_r+0x1ff8>
   12830:	a19fe06f          	j	11248 <_vfprintf_r+0xa0c>
   12834:	0b010b93          	addi	s7,sp,176
   12838:	000b8513          	mv	a0,s7
   1283c:	0bd12823          	sw	t4,176(sp)
   12840:	0be12a23          	sw	t5,180(sp)
   12844:	0bf12c23          	sw	t6,184(sp)
   12848:	0bc12e23          	sw	t3,188(sp)
   1284c:	004120ef          	jal	ra,24850 <__trunctfdf2>
   12850:	0cc10613          	addi	a2,sp,204
   12854:	48c060ef          	jal	ra,18ce0 <frexp>
   12858:	00058613          	mv	a2,a1
   1285c:	00050593          	mv	a1,a0
   12860:	000b8513          	mv	a0,s7
   12864:	5e5110ef          	jal	ra,24648 <__extenddftf2>
   12868:	09010793          	addi	a5,sp,144
   1286c:	00078593          	mv	a1,a5
   12870:	00f12c23          	sw	a5,24(sp)
   12874:	0b012783          	lw	a5,176(sp)
   12878:	0a010a13          	addi	s4,sp,160
   1287c:	08010613          	addi	a2,sp,128
   12880:	08f12823          	sw	a5,144(sp)
   12884:	0b412783          	lw	a5,180(sp)
   12888:	000a0513          	mv	a0,s4
   1288c:	04c12623          	sw	a2,76(sp)
   12890:	08f12a23          	sw	a5,148(sp)
   12894:	0b812783          	lw	a5,184(sp)
   12898:	05412c23          	sw	s4,88(sp)
   1289c:	08012023          	sw	zero,128(sp)
   128a0:	08f12c23          	sw	a5,152(sp)
   128a4:	0bc12783          	lw	a5,188(sp)
   128a8:	08012223          	sw	zero,132(sp)
   128ac:	08012423          	sw	zero,136(sp)
   128b0:	08f12e23          	sw	a5,156(sp)
   128b4:	3ffc07b7          	lui	a5,0x3ffc0
   128b8:	08f12623          	sw	a5,140(sp)
   128bc:	1a80f0ef          	jal	ra,21a64 <__multf3>
   128c0:	0a012683          	lw	a3,160(sp)
   128c4:	0a412e03          	lw	t3,164(sp)
   128c8:	0a812e83          	lw	t4,168(sp)
   128cc:	0ac12f03          	lw	t5,172(sp)
   128d0:	000a0593          	mv	a1,s4
   128d4:	000b8513          	mv	a0,s7
   128d8:	0ad12823          	sw	a3,176(sp)
   128dc:	02d12a23          	sw	a3,52(sp)
   128e0:	0bc12a23          	sw	t3,180(sp)
   128e4:	03c12223          	sw	t3,36(sp)
   128e8:	0bd12c23          	sw	t4,184(sp)
   128ec:	03d12023          	sw	t4,32(sp)
   128f0:	0be12e23          	sw	t5,188(sp)
   128f4:	01e12a23          	sw	t5,20(sp)
   128f8:	0a012023          	sw	zero,160(sp)
   128fc:	0a012223          	sw	zero,164(sp)
   12900:	0a012423          	sw	zero,168(sp)
   12904:	0a012623          	sw	zero,172(sp)
   12908:	6090e0ef          	jal	ra,21710 <__eqtf2>
   1290c:	01412f03          	lw	t5,20(sp)
   12910:	02012e83          	lw	t4,32(sp)
   12914:	02412e03          	lw	t3,36(sp)
   12918:	03412683          	lw	a3,52(sp)
   1291c:	00051663          	bnez	a0,12928 <_vfprintf_r+0x20ec>
   12920:	00100793          	li	a5,1
   12924:	0cf12623          	sw	a5,204(sp)
   12928:	00012797          	auipc	a5,0x12
   1292c:	4b078793          	addi	a5,a5,1200 # 24dd8 <zeroes.4505+0x34>
   12930:	02f12a23          	sw	a5,52(sp)
   12934:	fffb0a13          	addi	s4,s6,-1
   12938:	01a12a23          	sw	s10,20(sp)
   1293c:	000a0c93          	mv	s9,s4
   12940:	07212023          	sw	s2,96(sp)
   12944:	06912623          	sw	s1,108(sp)
   12948:	07b12a23          	sw	s11,116(sp)
   1294c:	07512c23          	sw	s5,120(sp)
   12950:	07a12e23          	sw	s10,124(sp)
   12954:	06812223          	sw	s0,100(sp)
   12958:	07312423          	sw	s3,104(sp)
   1295c:	07612823          	sw	s6,112(sp)
   12960:	00068d13          	mv	s10,a3
   12964:	000e0d93          	mv	s11,t3
   12968:	000e8a13          	mv	s4,t4
   1296c:	000f0a93          	mv	s5,t5
   12970:	01812903          	lw	s2,24(sp)
   12974:	05812483          	lw	s1,88(sp)
   12978:	0540006f          	j	129cc <_vfprintf_r+0x2190>
   1297c:	00048593          	mv	a1,s1
   12980:	000b8513          	mv	a0,s7
   12984:	02c12223          	sw	a2,36(sp)
   12988:	03f12023          	sw	t6,32(sp)
   1298c:	00512c23          	sw	t0,24(sp)
   12990:	0a512a23          	sw	t0,180(sp)
   12994:	0bf12c23          	sw	t6,184(sp)
   12998:	0ac12e23          	sw	a2,188(sp)
   1299c:	0b312823          	sw	s3,176(sp)
   129a0:	0a012023          	sw	zero,160(sp)
   129a4:	0a012223          	sw	zero,164(sp)
   129a8:	0a012423          	sw	zero,168(sp)
   129ac:	0a012623          	sw	zero,172(sp)
   129b0:	5610e0ef          	jal	ra,21710 <__eqtf2>
   129b4:	fffc8c93          	addi	s9,s9,-1
   129b8:	01812283          	lw	t0,24(sp)
   129bc:	02012f83          	lw	t6,32(sp)
   129c0:	02412603          	lw	a2,36(sp)
   129c4:	0e050463          	beqz	a0,12aac <_vfprintf_r+0x2270>
   129c8:	01612a23          	sw	s6,20(sp)
   129cc:	400307b7          	lui	a5,0x40030
   129d0:	00090613          	mv	a2,s2
   129d4:	00048593          	mv	a1,s1
   129d8:	000b8513          	mv	a0,s7
   129dc:	08f12e23          	sw	a5,156(sp)
   129e0:	0ba12023          	sw	s10,160(sp)
   129e4:	0bb12223          	sw	s11,164(sp)
   129e8:	0b412423          	sw	s4,168(sp)
   129ec:	0b512623          	sw	s5,172(sp)
   129f0:	08012823          	sw	zero,144(sp)
   129f4:	08012a23          	sw	zero,148(sp)
   129f8:	08012c23          	sw	zero,152(sp)
   129fc:	0680f0ef          	jal	ra,21a64 <__multf3>
   12a00:	000b8513          	mv	a0,s7
   12a04:	16d110ef          	jal	ra,24370 <__fixtfsi>
   12a08:	00050593          	mv	a1,a0
   12a0c:	00050413          	mv	s0,a0
   12a10:	000b8513          	mv	a0,s7
   12a14:	0b012b03          	lw	s6,176(sp)
   12a18:	0b412a03          	lw	s4,180(sp)
   12a1c:	0b812983          	lw	s3,184(sp)
   12a20:	0bc12a83          	lw	s5,188(sp)
   12a24:	29d110ef          	jal	ra,244c0 <__floatsitf>
   12a28:	0b012703          	lw	a4,176(sp)
   12a2c:	04c12603          	lw	a2,76(sp)
   12a30:	00090593          	mv	a1,s2
   12a34:	08e12023          	sw	a4,128(sp)
   12a38:	0b412703          	lw	a4,180(sp)
   12a3c:	00048513          	mv	a0,s1
   12a40:	09612823          	sw	s6,144(sp)
   12a44:	08e12223          	sw	a4,132(sp)
   12a48:	0b812703          	lw	a4,184(sp)
   12a4c:	09412a23          	sw	s4,148(sp)
   12a50:	09312c23          	sw	s3,152(sp)
   12a54:	08e12423          	sw	a4,136(sp)
   12a58:	0bc12703          	lw	a4,188(sp)
   12a5c:	09512e23          	sw	s5,156(sp)
   12a60:	08e12623          	sw	a4,140(sp)
   12a64:	36c100ef          	jal	ra,22dd0 <__subtf3>
   12a68:	03412783          	lw	a5,52(sp)
   12a6c:	0a012983          	lw	s3,160(sp)
   12a70:	0a412283          	lw	t0,164(sp)
   12a74:	00878733          	add	a4,a5,s0
   12a78:	01412783          	lw	a5,20(sp)
   12a7c:	00074683          	lbu	a3,0(a4)
   12a80:	0a812f83          	lw	t6,168(sp)
   12a84:	0ac12603          	lw	a2,172(sp)
   12a88:	00178b13          	addi	s6,a5,1 # 40030001 <__BSS_END__+0x40009519>
   12a8c:	fedb0fa3          	sb	a3,-1(s6)
   12a90:	05912823          	sw	s9,80(sp)
   12a94:	fff00793          	li	a5,-1
   12a98:	00098d13          	mv	s10,s3
   12a9c:	00028d93          	mv	s11,t0
   12aa0:	000f8a13          	mv	s4,t6
   12aa4:	00060a93          	mv	s5,a2
   12aa8:	ecfc9ae3          	bne	s9,a5,1297c <_vfprintf_r+0x2140>
   12aac:	05812a03          	lw	s4,88(sp)
   12ab0:	00098393          	mv	t2,s3
   12ab4:	3ffe0737          	lui	a4,0x3ffe0
   12ab8:	000a0593          	mv	a1,s4
   12abc:	000b8513          	mv	a0,s7
   12ac0:	06012903          	lw	s2,96(sp)
   12ac4:	00812c23          	sw	s0,24(sp)
   12ac8:	000b0c93          	mv	s9,s6
   12acc:	06c12483          	lw	s1,108(sp)
   12ad0:	07412d83          	lw	s11,116(sp)
   12ad4:	06412403          	lw	s0,100(sp)
   12ad8:	07012b03          	lw	s6,112(sp)
   12adc:	07812a83          	lw	s5,120(sp)
   12ae0:	07c12d03          	lw	s10,124(sp)
   12ae4:	06812983          	lw	s3,104(sp)
   12ae8:	0a712823          	sw	t2,176(sp)
   12aec:	06712023          	sw	t2,96(sp)
   12af0:	0a512a23          	sw	t0,180(sp)
   12af4:	04512623          	sw	t0,76(sp)
   12af8:	0bf12c23          	sw	t6,184(sp)
   12afc:	03f12223          	sw	t6,36(sp)
   12b00:	0ac12e23          	sw	a2,188(sp)
   12b04:	02c12023          	sw	a2,32(sp)
   12b08:	0a012023          	sw	zero,160(sp)
   12b0c:	0a012223          	sw	zero,164(sp)
   12b10:	0a012423          	sw	zero,168(sp)
   12b14:	0ae12623          	sw	a4,172(sp)
   12b18:	4c50e0ef          	jal	ra,217dc <__getf2>
   12b1c:	48a04e63          	bgtz	a0,12fb8 <_vfprintf_r+0x277c>
   12b20:	06012383          	lw	t2,96(sp)
   12b24:	04c12283          	lw	t0,76(sp)
   12b28:	02412f83          	lw	t6,36(sp)
   12b2c:	02012603          	lw	a2,32(sp)
   12b30:	3ffe0737          	lui	a4,0x3ffe0
   12b34:	000a0593          	mv	a1,s4
   12b38:	000b8513          	mv	a0,s7
   12b3c:	0a712823          	sw	t2,176(sp)
   12b40:	0a512a23          	sw	t0,180(sp)
   12b44:	0bf12c23          	sw	t6,184(sp)
   12b48:	0ac12e23          	sw	a2,188(sp)
   12b4c:	0a012023          	sw	zero,160(sp)
   12b50:	0a012223          	sw	zero,164(sp)
   12b54:	0a012423          	sw	zero,168(sp)
   12b58:	0ae12623          	sw	a4,172(sp)
   12b5c:	3b50e0ef          	jal	ra,21710 <__eqtf2>
   12b60:	00051863          	bnez	a0,12b70 <_vfprintf_r+0x2334>
   12b64:	01812783          	lw	a5,24(sp)
   12b68:	0017fa13          	andi	s4,a5,1
   12b6c:	440a1663          	bnez	s4,12fb8 <_vfprintf_r+0x277c>
   12b70:	05012783          	lw	a5,80(sp)
   12b74:	03000693          	li	a3,48
   12b78:	00178713          	addi	a4,a5,1
   12b7c:	00ec8733          	add	a4,s9,a4
   12b80:	0007c863          	bltz	a5,12b90 <_vfprintf_r+0x2354>
   12b84:	001c8c93          	addi	s9,s9,1
   12b88:	fedc8fa3          	sb	a3,-1(s9)
   12b8c:	ff971ce3          	bne	a4,s9,12b84 <_vfprintf_r+0x2348>
   12b90:	41ac87b3          	sub	a5,s9,s10
   12b94:	00f12c23          	sw	a5,24(sp)
   12b98:	f50fe06f          	j	112e8 <_vfprintf_r+0xaac>
   12b9c:	00098a13          	mv	s4,s3
   12ba0:	b21fe06f          	j	116c0 <_vfprintf_r+0xe84>
   12ba4:	02412d03          	lw	s10,36(sp)
   12ba8:	01812703          	lw	a4,24(sp)
   12bac:	02912e23          	sw	s1,60(sp)
   12bb0:	01412903          	lw	s2,20(sp)
   12bb4:	00ed0733          	add	a4,s10,a4
   12bb8:	03412983          	lw	s3,52(sp)
   12bbc:	04812483          	lw	s1,72(sp)
   12bc0:	02012a03          	lw	s4,32(sp)
   12bc4:	00068d93          	mv	s11,a3
   12bc8:	95677c63          	bgeu	a4,s6,11d20 <_vfprintf_r+0x14e4>
   12bcc:	00070b13          	mv	s6,a4
   12bd0:	950ff06f          	j	11d20 <_vfprintf_r+0x14e4>
   12bd4:	01412703          	lw	a4,20(sp)
   12bd8:	ffd00793          	li	a5,-3
   12bdc:	00f74463          	blt	a4,a5,12be4 <_vfprintf_r+0x23a8>
   12be0:	00eb5a63          	bge	s6,a4,12bf4 <_vfprintf_r+0x23b8>
   12be4:	ffe40413          	addi	s0,s0,-2
   12be8:	fdf47793          	andi	a5,s0,-33
   12bec:	04f12423          	sw	a5,72(sp)
   12bf0:	f20fe06f          	j	11310 <_vfprintf_r+0xad4>
   12bf4:	01812783          	lw	a5,24(sp)
   12bf8:	01412703          	lw	a4,20(sp)
   12bfc:	22f74663          	blt	a4,a5,12e28 <_vfprintf_r+0x25ec>
   12c00:	05412783          	lw	a5,84(sp)
   12c04:	00070b93          	mv	s7,a4
   12c08:	0017f793          	andi	a5,a5,1
   12c0c:	00078663          	beqz	a5,12c18 <_vfprintf_r+0x23dc>
   12c10:	02812783          	lw	a5,40(sp)
   12c14:	00f70bb3          	add	s7,a4,a5
   12c18:	05412783          	lw	a5,84(sp)
   12c1c:	4007f793          	andi	a5,a5,1024
   12c20:	00078663          	beqz	a5,12c2c <_vfprintf_r+0x23f0>
   12c24:	01412783          	lw	a5,20(sp)
   12c28:	40f04463          	bgtz	a5,13030 <_vfprintf_r+0x27f4>
   12c2c:	fffbca13          	not	s4,s7
   12c30:	41fa5a13          	srai	s4,s4,0x1f
   12c34:	014bfa33          	and	s4,s7,s4
   12c38:	06700413          	li	s0,103
   12c3c:	02012223          	sw	zero,36(sp)
   12c40:	02012023          	sw	zero,32(sp)
   12c44:	ff8fe06f          	j	1143c <_vfprintf_r+0xc00>
   12c48:	0c714783          	lbu	a5,199(sp)
   12c4c:	00000b13          	li	s6,0
   12c50:	00078463          	beqz	a5,12c58 <_vfprintf_r+0x241c>
   12c54:	fa9fd06f          	j	10bfc <_vfprintf_r+0x3c0>
   12c58:	ac4fe06f          	j	10f1c <_vfprintf_r+0x6e0>
   12c5c:	00012823          	sw	zero,16(sp)
   12c60:	00078993          	mv	s3,a5
   12c64:	800007b7          	lui	a5,0x80000
   12c68:	01c7ce33          	xor	t3,a5,t3
   12c6c:	02d00793          	li	a5,45
   12c70:	04f12e23          	sw	a5,92(sp)
   12c74:	badff06f          	j	12820 <_vfprintf_r+0x1fe4>
   12c78:	0e410613          	addi	a2,sp,228
   12c7c:	000a0593          	mv	a1,s4
   12c80:	000a8513          	mv	a0,s5
   12c84:	25c090ef          	jal	ra,1bee0 <__sprint_r>
   12c88:	00050463          	beqz	a0,12c90 <_vfprintf_r+0x2454>
   12c8c:	e69fd06f          	j	10af4 <_vfprintf_r+0x2b8>
   12c90:	0004c603          	lbu	a2,0(s1)
   12c94:	0ec12783          	lw	a5,236(sp)
   12c98:	10c10693          	addi	a3,sp,268
   12c9c:	00cb0b33          	add	s6,s6,a2
   12ca0:	915ff06f          	j	125b4 <_vfprintf_r+0x1d78>
   12ca4:	04012783          	lw	a5,64(sp)
   12ca8:	04412583          	lw	a1,68(sp)
   12cac:	00000413          	li	s0,0
   12cb0:	40f90933          	sub	s2,s2,a5
   12cb4:	00078613          	mv	a2,a5
   12cb8:	00090513          	mv	a0,s2
   12cbc:	5d0060ef          	jal	ra,1928c <strncpy>
   12cc0:	0014c803          	lbu	a6,1(s1)
   12cc4:	00a00613          	li	a2,10
   12cc8:	00000693          	li	a3,0
   12ccc:	01003833          	snez	a6,a6
   12cd0:	000c8513          	mv	a0,s9
   12cd4:	000a0593          	mv	a1,s4
   12cd8:	010484b3          	add	s1,s1,a6
   12cdc:	1300d0ef          	jal	ra,1fe0c <__udivdi3>
   12ce0:	d10ff06f          	j	121f0 <_vfprintf_r+0x19b4>
   12ce4:	00900793          	li	a5,9
   12ce8:	d197e463          	bltu	a5,s9,121f0 <_vfprintf_r+0x19b4>
   12cec:	d50ff06f          	j	1223c <_vfprintf_r+0x1a00>
   12cf0:	0b010b93          	addi	s7,sp,176
   12cf4:	0d010793          	addi	a5,sp,208
   12cf8:	0cc10713          	addi	a4,sp,204
   12cfc:	0dc10813          	addi	a6,sp,220
   12d00:	000b0693          	mv	a3,s6
   12d04:	00300613          	li	a2,3
   12d08:	000b8593          	mv	a1,s7
   12d0c:	000a8513          	mv	a0,s5
   12d10:	0bd12823          	sw	t4,176(sp)
   12d14:	03d12223          	sw	t4,36(sp)
   12d18:	0be12a23          	sw	t5,180(sp)
   12d1c:	03e12023          	sw	t5,32(sp)
   12d20:	0bf12c23          	sw	t6,184(sp)
   12d24:	01f12c23          	sw	t6,24(sp)
   12d28:	0bc12e23          	sw	t3,188(sp)
   12d2c:	01c12a23          	sw	t3,20(sp)
   12d30:	791020ef          	jal	ra,15cc0 <_ldtoa_r>
   12d34:	00054703          	lbu	a4,0(a0)
   12d38:	03000793          	li	a5,48
   12d3c:	00050d13          	mv	s10,a0
   12d40:	01412e03          	lw	t3,20(sp)
   12d44:	01812f83          	lw	t6,24(sp)
   12d48:	02012f03          	lw	t5,32(sp)
   12d4c:	02412e83          	lw	t4,36(sp)
   12d50:	4cf70263          	beq	a4,a5,13214 <_vfprintf_r+0x29d8>
   12d54:	0a010793          	addi	a5,sp,160
   12d58:	04f12c23          	sw	a5,88(sp)
   12d5c:	0cc12783          	lw	a5,204(sp)
   12d60:	016787b3          	add	a5,a5,s6
   12d64:	00fd0a33          	add	s4,s10,a5
   12d68:	05812583          	lw	a1,88(sp)
   12d6c:	000b8513          	mv	a0,s7
   12d70:	0bd12823          	sw	t4,176(sp)
   12d74:	0be12a23          	sw	t5,180(sp)
   12d78:	0bf12c23          	sw	t6,184(sp)
   12d7c:	0bc12e23          	sw	t3,188(sp)
   12d80:	0a012023          	sw	zero,160(sp)
   12d84:	0a012223          	sw	zero,164(sp)
   12d88:	0a012423          	sw	zero,168(sp)
   12d8c:	0a012623          	sw	zero,172(sp)
   12d90:	1810e0ef          	jal	ra,21710 <__eqtf2>
   12d94:	000a0793          	mv	a5,s4
   12d98:	00051463          	bnez	a0,12da0 <_vfprintf_r+0x2564>
   12d9c:	d44fe06f          	j	112e0 <_vfprintf_r+0xaa4>
   12da0:	0dc12783          	lw	a5,220(sp)
   12da4:	03000693          	li	a3,48
   12da8:	0147e463          	bltu	a5,s4,12db0 <_vfprintf_r+0x2574>
   12dac:	d34fe06f          	j	112e0 <_vfprintf_r+0xaa4>
   12db0:	00178713          	addi	a4,a5,1 # 80000001 <__BSS_END__+0x7ffd9519>
   12db4:	0ce12e23          	sw	a4,220(sp)
   12db8:	00d78023          	sb	a3,0(a5)
   12dbc:	0dc12783          	lw	a5,220(sp)
   12dc0:	ff47e8e3          	bltu	a5,s4,12db0 <_vfprintf_r+0x2574>
   12dc4:	d1cfe06f          	j	112e0 <_vfprintf_r+0xaa4>
   12dc8:	02d00793          	li	a5,45
   12dcc:	0cf103a3          	sb	a5,199(sp)
   12dd0:	d34ff06f          	j	12304 <_vfprintf_r+0x1ac8>
   12dd4:	00412583          	lw	a1,4(sp)
   12dd8:	0e410613          	addi	a2,sp,228
   12ddc:	000a8513          	mv	a0,s5
   12de0:	100090ef          	jal	ra,1bee0 <__sprint_r>
   12de4:	00050463          	beqz	a0,12dec <_vfprintf_r+0x25b0>
   12de8:	d0dfd06f          	j	10af4 <_vfprintf_r+0x2b8>
   12dec:	0cc12403          	lw	s0,204(sp)
   12df0:	0ec12783          	lw	a5,236(sp)
   12df4:	10c10d93          	addi	s11,sp,268
   12df8:	f71fe06f          	j	11d68 <_vfprintf_r+0x152c>
   12dfc:	0c714783          	lbu	a5,199(sp)
   12e00:	01912623          	sw	s9,12(sp)
   12e04:	02012223          	sw	zero,36(sp)
   12e08:	02012023          	sw	zero,32(sp)
   12e0c:	00012a23          	sw	zero,20(sp)
   12e10:	000b0a13          	mv	s4,s6
   12e14:	000b0b93          	mv	s7,s6
   12e18:	00000b13          	li	s6,0
   12e1c:	00078463          	beqz	a5,12e24 <_vfprintf_r+0x25e8>
   12e20:	dddfd06f          	j	10bfc <_vfprintf_r+0x3c0>
   12e24:	8f8fe06f          	j	10f1c <_vfprintf_r+0x6e0>
   12e28:	01812783          	lw	a5,24(sp)
   12e2c:	02812703          	lw	a4,40(sp)
   12e30:	06700413          	li	s0,103
   12e34:	00e78bb3          	add	s7,a5,a4
   12e38:	01412783          	lw	a5,20(sp)
   12e3c:	42f05e63          	blez	a5,13278 <_vfprintf_r+0x2a3c>
   12e40:	05412783          	lw	a5,84(sp)
   12e44:	4007f793          	andi	a5,a5,1024
   12e48:	1e079663          	bnez	a5,13034 <_vfprintf_r+0x27f8>
   12e4c:	fffbca13          	not	s4,s7
   12e50:	41fa5a13          	srai	s4,s4,0x1f
   12e54:	014bfa33          	and	s4,s7,s4
   12e58:	de5ff06f          	j	12c3c <_vfprintf_r+0x2400>
   12e5c:	00412583          	lw	a1,4(sp)
   12e60:	0e410613          	addi	a2,sp,228
   12e64:	000a8513          	mv	a0,s5
   12e68:	078090ef          	jal	ra,1bee0 <__sprint_r>
   12e6c:	00050463          	beqz	a0,12e74 <_vfprintf_r+0x2638>
   12e70:	c85fd06f          	j	10af4 <_vfprintf_r+0x2b8>
   12e74:	0cc12403          	lw	s0,204(sp)
   12e78:	01812703          	lw	a4,24(sp)
   12e7c:	0ec12783          	lw	a5,236(sp)
   12e80:	10c10d93          	addi	s11,sp,268
   12e84:	40870433          	sub	s0,a4,s0
   12e88:	f2dfe06f          	j	11db4 <_vfprintf_r+0x1578>
   12e8c:	05412783          	lw	a5,84(sp)
   12e90:	01412703          	lw	a4,20(sp)
   12e94:	0017f793          	andi	a5,a5,1
   12e98:	0167e7b3          	or	a5,a5,s6
   12e9c:	3ee05a63          	blez	a4,13290 <_vfprintf_r+0x2a54>
   12ea0:	24079463          	bnez	a5,130e8 <_vfprintf_r+0x28ac>
   12ea4:	01412b83          	lw	s7,20(sp)
   12ea8:	06600413          	li	s0,102
   12eac:	f95ff06f          	j	12e40 <_vfprintf_r+0x2604>
   12eb0:	fff00793          	li	a5,-1
   12eb4:	00f12423          	sw	a5,8(sp)
   12eb8:	c65fd06f          	j	10b1c <_vfprintf_r+0x2e0>
   12ebc:	00012697          	auipc	a3,0x12
   12ec0:	ee868693          	addi	a3,a3,-280 # 24da4 <zeroes.4505>
   12ec4:	008787b3          	add	a5,a5,s0
   12ec8:	00170713          	addi	a4,a4,1 # 3ffe0001 <__BSS_END__+0x3ffb9519>
   12ecc:	00d8a023          	sw	a3,0(a7)
   12ed0:	0088a223          	sw	s0,4(a7)
   12ed4:	0ef12623          	sw	a5,236(sp)
   12ed8:	0ee12423          	sw	a4,232(sp)
   12edc:	00700693          	li	a3,7
   12ee0:	00888893          	addi	a7,a7,8
   12ee4:	a8e6d663          	bge	a3,a4,12170 <_vfprintf_r+0x1934>
   12ee8:	00412583          	lw	a1,4(sp)
   12eec:	0e410613          	addi	a2,sp,228
   12ef0:	000a8513          	mv	a0,s5
   12ef4:	7ed080ef          	jal	ra,1bee0 <__sprint_r>
   12ef8:	00050463          	beqz	a0,12f00 <_vfprintf_r+0x26c4>
   12efc:	bf9fd06f          	j	10af4 <_vfprintf_r+0x2b8>
   12f00:	0ec12783          	lw	a5,236(sp)
   12f04:	0e812703          	lw	a4,232(sp)
   12f08:	10c10893          	addi	a7,sp,268
   12f0c:	a64ff06f          	j	12170 <_vfprintf_r+0x1934>
   12f10:	0a010793          	addi	a5,sp,160
   12f14:	016d0a33          	add	s4,s10,s6
   12f18:	04f12c23          	sw	a5,88(sp)
   12f1c:	e4dff06f          	j	12d68 <_vfprintf_r+0x252c>
   12f20:	001b0a13          	addi	s4,s6,1
   12f24:	0b010b93          	addi	s7,sp,176
   12f28:	0dc10813          	addi	a6,sp,220
   12f2c:	0d010793          	addi	a5,sp,208
   12f30:	0cc10713          	addi	a4,sp,204
   12f34:	000a0693          	mv	a3,s4
   12f38:	00200613          	li	a2,2
   12f3c:	000b8593          	mv	a1,s7
   12f40:	000a8513          	mv	a0,s5
   12f44:	0bd12823          	sw	t4,176(sp)
   12f48:	03d12223          	sw	t4,36(sp)
   12f4c:	0be12a23          	sw	t5,180(sp)
   12f50:	03e12023          	sw	t5,32(sp)
   12f54:	0bf12c23          	sw	t6,184(sp)
   12f58:	01f12c23          	sw	t6,24(sp)
   12f5c:	0bc12e23          	sw	t3,188(sp)
   12f60:	01c12a23          	sw	t3,20(sp)
   12f64:	55d020ef          	jal	ra,15cc0 <_ldtoa_r>
   12f68:	01412e03          	lw	t3,20(sp)
   12f6c:	01812f83          	lw	t6,24(sp)
   12f70:	02012f03          	lw	t5,32(sp)
   12f74:	02412e83          	lw	t4,36(sp)
   12f78:	00050d13          	mv	s10,a0
   12f7c:	0a010793          	addi	a5,sp,160
   12f80:	014d0a33          	add	s4,s10,s4
   12f84:	04f12c23          	sw	a5,88(sp)
   12f88:	de1ff06f          	j	12d68 <_vfprintf_r+0x252c>
   12f8c:	03000793          	li	a5,48
   12f90:	0cf10423          	sb	a5,200(sp)
   12f94:	07800793          	li	a5,120
   12f98:	849ff06f          	j	127e0 <_vfprintf_r+0x1fa4>
   12f9c:	001b0593          	addi	a1,s6,1
   12fa0:	000a8513          	mv	a0,s5
   12fa4:	314040ef          	jal	ra,172b8 <_malloc_r>
   12fa8:	00050d13          	mv	s10,a0
   12fac:	34050c63          	beqz	a0,13304 <_vfprintf_r+0x2ac8>
   12fb0:	00a12823          	sw	a0,16(sp)
   12fb4:	849ff06f          	j	127fc <_vfprintf_r+0x1fc0>
   12fb8:	01412783          	lw	a5,20(sp)
   12fbc:	000c8713          	mv	a4,s9
   12fc0:	0cf12e23          	sw	a5,220(sp)
   12fc4:	03412783          	lw	a5,52(sp)
   12fc8:	fffcc683          	lbu	a3,-1(s9)
   12fcc:	00f7c603          	lbu	a2,15(a5)
   12fd0:	02d61063          	bne	a2,a3,12ff0 <_vfprintf_r+0x27b4>
   12fd4:	03000593          	li	a1,48
   12fd8:	feb70fa3          	sb	a1,-1(a4)
   12fdc:	0dc12703          	lw	a4,220(sp)
   12fe0:	fff70793          	addi	a5,a4,-1
   12fe4:	0cf12e23          	sw	a5,220(sp)
   12fe8:	fff74683          	lbu	a3,-1(a4)
   12fec:	fed606e3          	beq	a2,a3,12fd8 <_vfprintf_r+0x279c>
   12ff0:	00168613          	addi	a2,a3,1
   12ff4:	03900593          	li	a1,57
   12ff8:	0ff67613          	andi	a2,a2,255
   12ffc:	00b68663          	beq	a3,a1,13008 <_vfprintf_r+0x27cc>
   13000:	fec70fa3          	sb	a2,-1(a4)
   13004:	b8dff06f          	j	12b90 <_vfprintf_r+0x2354>
   13008:	03412783          	lw	a5,52(sp)
   1300c:	00a7c603          	lbu	a2,10(a5)
   13010:	fec70fa3          	sb	a2,-1(a4)
   13014:	b7dff06f          	j	12b90 <_vfprintf_r+0x2354>
   13018:	000b0463          	beqz	s6,13020 <_vfprintf_r+0x27e4>
   1301c:	a00fe06f          	j	1121c <_vfprintf_r+0x9e0>
   13020:	00100b13          	li	s6,1
   13024:	9f8fe06f          	j	1121c <_vfprintf_r+0x9e0>
   13028:	00600b13          	li	s6,6
   1302c:	9f0fe06f          	j	1121c <_vfprintf_r+0x9e0>
   13030:	06700413          	li	s0,103
   13034:	03c12583          	lw	a1,60(sp)
   13038:	01412703          	lw	a4,20(sp)
   1303c:	02012223          	sw	zero,36(sp)
   13040:	0005c783          	lbu	a5,0(a1)
   13044:	02012023          	sw	zero,32(sp)
   13048:	0ff00693          	li	a3,255
   1304c:	02d78e63          	beq	a5,a3,13088 <_vfprintf_r+0x284c>
   13050:	02e7dc63          	bge	a5,a4,13088 <_vfprintf_r+0x284c>
   13054:	0015c603          	lbu	a2,1(a1)
   13058:	40f70733          	sub	a4,a4,a5
   1305c:	00060e63          	beqz	a2,13078 <_vfprintf_r+0x283c>
   13060:	02012783          	lw	a5,32(sp)
   13064:	00158593          	addi	a1,a1,1
   13068:	00178793          	addi	a5,a5,1
   1306c:	02f12023          	sw	a5,32(sp)
   13070:	00060793          	mv	a5,a2
   13074:	fd9ff06f          	j	1304c <_vfprintf_r+0x2810>
   13078:	02412603          	lw	a2,36(sp)
   1307c:	00160613          	addi	a2,a2,1
   13080:	02c12223          	sw	a2,36(sp)
   13084:	fc9ff06f          	j	1304c <_vfprintf_r+0x2810>
   13088:	00e12a23          	sw	a4,20(sp)
   1308c:	02012783          	lw	a5,32(sp)
   13090:	02412703          	lw	a4,36(sp)
   13094:	02b12e23          	sw	a1,60(sp)
   13098:	04012583          	lw	a1,64(sp)
   1309c:	00e78533          	add	a0,a5,a4
   130a0:	abcfd0ef          	jal	ra,1035c <__mulsi3>
   130a4:	01750bb3          	add	s7,a0,s7
   130a8:	fffbca13          	not	s4,s7
   130ac:	41fa5a13          	srai	s4,s4,0x1f
   130b0:	014bfa33          	and	s4,s7,s4
   130b4:	b88fe06f          	j	1143c <_vfprintf_r+0xc00>
   130b8:	0d610793          	addi	a5,sp,214
   130bc:	00071863          	bnez	a4,130cc <_vfprintf_r+0x2890>
   130c0:	03000793          	li	a5,48
   130c4:	0cf10b23          	sb	a5,214(sp)
   130c8:	0d710793          	addi	a5,sp,215
   130cc:	1b010713          	addi	a4,sp,432
   130d0:	030a0a13          	addi	s4,s4,48
   130d4:	40e78733          	sub	a4,a5,a4
   130d8:	01478023          	sb	s4,0(a5)
   130dc:	0dd70793          	addi	a5,a4,221
   130e0:	02f12c23          	sw	a5,56(sp)
   130e4:	b14fe06f          	j	113f8 <_vfprintf_r+0xbbc>
   130e8:	02812783          	lw	a5,40(sp)
   130ec:	06600413          	li	s0,102
   130f0:	00f70bb3          	add	s7,a4,a5
   130f4:	016b8bb3          	add	s7,s7,s6
   130f8:	d49ff06f          	j	12e40 <_vfprintf_r+0x2604>
   130fc:	0b010b93          	addi	s7,sp,176
   13100:	000b8513          	mv	a0,s7
   13104:	0bd12823          	sw	t4,176(sp)
   13108:	0be12a23          	sw	t5,180(sp)
   1310c:	0bf12c23          	sw	t6,184(sp)
   13110:	0bc12e23          	sw	t3,188(sp)
   13114:	73c110ef          	jal	ra,24850 <__trunctfdf2>
   13118:	0cc10613          	addi	a2,sp,204
   1311c:	3c5050ef          	jal	ra,18ce0 <frexp>
   13120:	00058613          	mv	a2,a1
   13124:	00050593          	mv	a1,a0
   13128:	000b8513          	mv	a0,s7
   1312c:	51c110ef          	jal	ra,24648 <__extenddftf2>
   13130:	09010793          	addi	a5,sp,144
   13134:	00078593          	mv	a1,a5
   13138:	00f12c23          	sw	a5,24(sp)
   1313c:	0b012783          	lw	a5,176(sp)
   13140:	0a010a13          	addi	s4,sp,160
   13144:	08010613          	addi	a2,sp,128
   13148:	08f12823          	sw	a5,144(sp)
   1314c:	0b412783          	lw	a5,180(sp)
   13150:	000a0513          	mv	a0,s4
   13154:	04c12623          	sw	a2,76(sp)
   13158:	08f12a23          	sw	a5,148(sp)
   1315c:	0b812783          	lw	a5,184(sp)
   13160:	05412c23          	sw	s4,88(sp)
   13164:	08012023          	sw	zero,128(sp)
   13168:	08f12c23          	sw	a5,152(sp)
   1316c:	0bc12783          	lw	a5,188(sp)
   13170:	08012223          	sw	zero,132(sp)
   13174:	08012423          	sw	zero,136(sp)
   13178:	08f12e23          	sw	a5,156(sp)
   1317c:	3ffc07b7          	lui	a5,0x3ffc0
   13180:	08f12623          	sw	a5,140(sp)
   13184:	0e10e0ef          	jal	ra,21a64 <__multf3>
   13188:	0a012683          	lw	a3,160(sp)
   1318c:	0a412e03          	lw	t3,164(sp)
   13190:	0a812e83          	lw	t4,168(sp)
   13194:	0ac12f03          	lw	t5,172(sp)
   13198:	000a0593          	mv	a1,s4
   1319c:	000b8513          	mv	a0,s7
   131a0:	0ad12823          	sw	a3,176(sp)
   131a4:	02d12a23          	sw	a3,52(sp)
   131a8:	0bc12a23          	sw	t3,180(sp)
   131ac:	03c12223          	sw	t3,36(sp)
   131b0:	0bd12c23          	sw	t4,184(sp)
   131b4:	03d12023          	sw	t4,32(sp)
   131b8:	0be12e23          	sw	t5,188(sp)
   131bc:	01e12a23          	sw	t5,20(sp)
   131c0:	0a012023          	sw	zero,160(sp)
   131c4:	0a012223          	sw	zero,164(sp)
   131c8:	0a012423          	sw	zero,168(sp)
   131cc:	0a012623          	sw	zero,172(sp)
   131d0:	5400e0ef          	jal	ra,21710 <__eqtf2>
   131d4:	01412f03          	lw	t5,20(sp)
   131d8:	02012e83          	lw	t4,32(sp)
   131dc:	02412e03          	lw	t3,36(sp)
   131e0:	03412683          	lw	a3,52(sp)
   131e4:	00051663          	bnez	a0,131f0 <_vfprintf_r+0x29b4>
   131e8:	00100793          	li	a5,1
   131ec:	0cf12623          	sw	a5,204(sp)
   131f0:	00012797          	auipc	a5,0x12
   131f4:	bd478793          	addi	a5,a5,-1068 # 24dc4 <zeroes.4505+0x20>
   131f8:	02f12a23          	sw	a5,52(sp)
   131fc:	f38ff06f          	j	12934 <_vfprintf_r+0x20f8>
   13200:	05412783          	lw	a5,84(sp)
   13204:	0017f793          	andi	a5,a5,1
   13208:	00079463          	bnez	a5,13210 <_vfprintf_r+0x29d4>
   1320c:	a0cfe06f          	j	11418 <_vfprintf_r+0xbdc>
   13210:	a00fe06f          	j	11410 <_vfprintf_r+0xbd4>
   13214:	0a010593          	addi	a1,sp,160
   13218:	000b8513          	mv	a0,s7
   1321c:	0bd12823          	sw	t4,176(sp)
   13220:	03d12223          	sw	t4,36(sp)
   13224:	0be12a23          	sw	t5,180(sp)
   13228:	03e12023          	sw	t5,32(sp)
   1322c:	0bf12c23          	sw	t6,184(sp)
   13230:	01f12c23          	sw	t6,24(sp)
   13234:	0bc12e23          	sw	t3,188(sp)
   13238:	01c12a23          	sw	t3,20(sp)
   1323c:	04b12c23          	sw	a1,88(sp)
   13240:	0a012023          	sw	zero,160(sp)
   13244:	0a012223          	sw	zero,164(sp)
   13248:	0a012423          	sw	zero,168(sp)
   1324c:	0a012623          	sw	zero,172(sp)
   13250:	4c00e0ef          	jal	ra,21710 <__eqtf2>
   13254:	01412e03          	lw	t3,20(sp)
   13258:	01812f83          	lw	t6,24(sp)
   1325c:	02012f03          	lw	t5,32(sp)
   13260:	02412e83          	lw	t4,36(sp)
   13264:	ae050ce3          	beqz	a0,12d5c <_vfprintf_r+0x2520>
   13268:	00100793          	li	a5,1
   1326c:	416787b3          	sub	a5,a5,s6
   13270:	0cf12623          	sw	a5,204(sp)
   13274:	aedff06f          	j	12d60 <_vfprintf_r+0x2524>
   13278:	40fb8bb3          	sub	s7,s7,a5
   1327c:	001b8b93          	addi	s7,s7,1
   13280:	fffbca13          	not	s4,s7
   13284:	41fa5a13          	srai	s4,s4,0x1f
   13288:	014bfa33          	and	s4,s7,s4
   1328c:	9b1ff06f          	j	12c3c <_vfprintf_r+0x2400>
   13290:	00079a63          	bnez	a5,132a4 <_vfprintf_r+0x2a68>
   13294:	00100a13          	li	s4,1
   13298:	06600413          	li	s0,102
   1329c:	00100b93          	li	s7,1
   132a0:	99dff06f          	j	12c3c <_vfprintf_r+0x2400>
   132a4:	02812783          	lw	a5,40(sp)
   132a8:	06600413          	li	s0,102
   132ac:	00178b93          	addi	s7,a5,1
   132b0:	016b8bb3          	add	s7,s7,s6
   132b4:	fffbca13          	not	s4,s7
   132b8:	41fa5a13          	srai	s4,s4,0x1f
   132bc:	014bfa33          	and	s4,s7,s4
   132c0:	97dff06f          	j	12c3c <_vfprintf_r+0x2400>
   132c4:	000d8613          	mv	a2,s11
   132c8:	cb1fe06f          	j	11f78 <_vfprintf_r+0x173c>
   132cc:	00c12703          	lw	a4,12(sp)
   132d0:	00072b03          	lw	s6,0(a4)
   132d4:	00470713          	addi	a4,a4,4
   132d8:	000b5463          	bgez	s6,132e0 <_vfprintf_r+0x2aa4>
   132dc:	fff00b13          	li	s6,-1
   132e0:	00194403          	lbu	s0,1(s2)
   132e4:	00e12623          	sw	a4,12(sp)
   132e8:	00078913          	mv	s2,a5
   132ec:	f04fd06f          	j	109f0 <_vfprintf_r+0x1b4>
   132f0:	00098a13          	mv	s4,s3
   132f4:	b2dfd06f          	j	10e20 <_vfprintf_r+0x5e4>
   132f8:	00200793          	li	a5,2
   132fc:	02f12c23          	sw	a5,56(sp)
   13300:	8f8fe06f          	j	113f8 <_vfprintf_r+0xbbc>
   13304:	00412703          	lw	a4,4(sp)
   13308:	00c75783          	lhu	a5,12(a4)
   1330c:	0407e793          	ori	a5,a5,64
   13310:	00f71623          	sh	a5,12(a4)
   13314:	ff4fd06f          	j	10b08 <_vfprintf_r+0x2cc>
   13318:	00098a13          	mv	s4,s3
   1331c:	954fe06f          	j	11470 <_vfprintf_r+0xc34>
   13320:	000b0a13          	mv	s4,s6
   13324:	c59ff06f          	j	12f7c <_vfprintf_r+0x2740>

00013328 <vfprintf>:
   13328:	1c018793          	addi	a5,gp,448 # 26a80 <_impure_ptr>
   1332c:	00060693          	mv	a3,a2
   13330:	00058613          	mv	a2,a1
   13334:	00050593          	mv	a1,a0
   13338:	0007a503          	lw	a0,0(a5)
   1333c:	d00fd06f          	j	1083c <_vfprintf_r>

00013340 <__sbprintf>:
   13340:	00c5d783          	lhu	a5,12(a1)
   13344:	0645ae03          	lw	t3,100(a1)
   13348:	00e5d303          	lhu	t1,14(a1)
   1334c:	01c5a883          	lw	a7,28(a1)
   13350:	0245a803          	lw	a6,36(a1)
   13354:	b8010113          	addi	sp,sp,-1152
   13358:	ffd7f793          	andi	a5,a5,-3
   1335c:	40000713          	li	a4,1024
   13360:	46812c23          	sw	s0,1144(sp)
   13364:	00f11a23          	sh	a5,20(sp)
   13368:	00058413          	mv	s0,a1
   1336c:	07010793          	addi	a5,sp,112
   13370:	00810593          	addi	a1,sp,8
   13374:	46912a23          	sw	s1,1140(sp)
   13378:	47212823          	sw	s2,1136(sp)
   1337c:	46112e23          	sw	ra,1148(sp)
   13380:	00050913          	mv	s2,a0
   13384:	07c12623          	sw	t3,108(sp)
   13388:	00611b23          	sh	t1,22(sp)
   1338c:	03112223          	sw	a7,36(sp)
   13390:	03012623          	sw	a6,44(sp)
   13394:	00f12423          	sw	a5,8(sp)
   13398:	00f12c23          	sw	a5,24(sp)
   1339c:	00e12823          	sw	a4,16(sp)
   133a0:	00e12e23          	sw	a4,28(sp)
   133a4:	02012023          	sw	zero,32(sp)
   133a8:	c94fd0ef          	jal	ra,1083c <_vfprintf_r>
   133ac:	00050493          	mv	s1,a0
   133b0:	02055c63          	bgez	a0,133e8 <__sbprintf+0xa8>
   133b4:	01415783          	lhu	a5,20(sp)
   133b8:	0407f793          	andi	a5,a5,64
   133bc:	00078863          	beqz	a5,133cc <__sbprintf+0x8c>
   133c0:	00c45783          	lhu	a5,12(s0)
   133c4:	0407e793          	ori	a5,a5,64
   133c8:	00f41623          	sh	a5,12(s0)
   133cc:	47c12083          	lw	ra,1148(sp)
   133d0:	47812403          	lw	s0,1144(sp)
   133d4:	00048513          	mv	a0,s1
   133d8:	47012903          	lw	s2,1136(sp)
   133dc:	47412483          	lw	s1,1140(sp)
   133e0:	48010113          	addi	sp,sp,1152
   133e4:	00008067          	ret
   133e8:	00810593          	addi	a1,sp,8
   133ec:	00090513          	mv	a0,s2
   133f0:	724000ef          	jal	ra,13b14 <_fflush_r>
   133f4:	fc0500e3          	beqz	a0,133b4 <__sbprintf+0x74>
   133f8:	fff00493          	li	s1,-1
   133fc:	fb9ff06f          	j	133b4 <__sbprintf+0x74>

00013400 <__swbuf_r>:
   13400:	fe010113          	addi	sp,sp,-32
   13404:	00812c23          	sw	s0,24(sp)
   13408:	00912a23          	sw	s1,20(sp)
   1340c:	01212823          	sw	s2,16(sp)
   13410:	00112e23          	sw	ra,28(sp)
   13414:	01312623          	sw	s3,12(sp)
   13418:	00050913          	mv	s2,a0
   1341c:	00058493          	mv	s1,a1
   13420:	00060413          	mv	s0,a2
   13424:	00050663          	beqz	a0,13430 <__swbuf_r+0x30>
   13428:	03852783          	lw	a5,56(a0)
   1342c:	14078863          	beqz	a5,1357c <__swbuf_r+0x17c>
   13430:	00c41703          	lh	a4,12(s0)
   13434:	01842783          	lw	a5,24(s0)
   13438:	01071693          	slli	a3,a4,0x10
   1343c:	0106d693          	srli	a3,a3,0x10
   13440:	00f42423          	sw	a5,8(s0)
   13444:	0086f793          	andi	a5,a3,8
   13448:	08078263          	beqz	a5,134cc <__swbuf_r+0xcc>
   1344c:	01042783          	lw	a5,16(s0)
   13450:	06078e63          	beqz	a5,134cc <__swbuf_r+0xcc>
   13454:	01269613          	slli	a2,a3,0x12
   13458:	0ff4f993          	andi	s3,s1,255
   1345c:	0ff4f493          	andi	s1,s1,255
   13460:	08065e63          	bgez	a2,134fc <__swbuf_r+0xfc>
   13464:	00042703          	lw	a4,0(s0)
   13468:	01442683          	lw	a3,20(s0)
   1346c:	40f707b3          	sub	a5,a4,a5
   13470:	0ad7de63          	bge	a5,a3,1352c <__swbuf_r+0x12c>
   13474:	00842683          	lw	a3,8(s0)
   13478:	00170613          	addi	a2,a4,1
   1347c:	00c42023          	sw	a2,0(s0)
   13480:	fff68693          	addi	a3,a3,-1
   13484:	00d42423          	sw	a3,8(s0)
   13488:	01370023          	sb	s3,0(a4)
   1348c:	01442703          	lw	a4,20(s0)
   13490:	00178793          	addi	a5,a5,1
   13494:	0cf70863          	beq	a4,a5,13564 <__swbuf_r+0x164>
   13498:	00c45783          	lhu	a5,12(s0)
   1349c:	0017f793          	andi	a5,a5,1
   134a0:	00078663          	beqz	a5,134ac <__swbuf_r+0xac>
   134a4:	00a00793          	li	a5,10
   134a8:	0af48e63          	beq	s1,a5,13564 <__swbuf_r+0x164>
   134ac:	01c12083          	lw	ra,28(sp)
   134b0:	01812403          	lw	s0,24(sp)
   134b4:	00048513          	mv	a0,s1
   134b8:	01012903          	lw	s2,16(sp)
   134bc:	01412483          	lw	s1,20(sp)
   134c0:	00c12983          	lw	s3,12(sp)
   134c4:	02010113          	addi	sp,sp,32
   134c8:	00008067          	ret
   134cc:	00040593          	mv	a1,s0
   134d0:	00090513          	mv	a0,s2
   134d4:	0c4000ef          	jal	ra,13598 <__swsetup_r>
   134d8:	08051e63          	bnez	a0,13574 <__swbuf_r+0x174>
   134dc:	00c41703          	lh	a4,12(s0)
   134e0:	0ff4f993          	andi	s3,s1,255
   134e4:	01042783          	lw	a5,16(s0)
   134e8:	01071693          	slli	a3,a4,0x10
   134ec:	0106d693          	srli	a3,a3,0x10
   134f0:	01269613          	slli	a2,a3,0x12
   134f4:	0ff4f493          	andi	s1,s1,255
   134f8:	f60646e3          	bltz	a2,13464 <__swbuf_r+0x64>
   134fc:	06442683          	lw	a3,100(s0)
   13500:	00002637          	lui	a2,0x2
   13504:	00c76733          	or	a4,a4,a2
   13508:	ffffe637          	lui	a2,0xffffe
   1350c:	fff60613          	addi	a2,a2,-1 # ffffdfff <__BSS_END__+0xfffd7517>
   13510:	00c6f6b3          	and	a3,a3,a2
   13514:	00e41623          	sh	a4,12(s0)
   13518:	00042703          	lw	a4,0(s0)
   1351c:	06d42223          	sw	a3,100(s0)
   13520:	01442683          	lw	a3,20(s0)
   13524:	40f707b3          	sub	a5,a4,a5
   13528:	f4d7c6e3          	blt	a5,a3,13474 <__swbuf_r+0x74>
   1352c:	00040593          	mv	a1,s0
   13530:	00090513          	mv	a0,s2
   13534:	5e0000ef          	jal	ra,13b14 <_fflush_r>
   13538:	02051e63          	bnez	a0,13574 <__swbuf_r+0x174>
   1353c:	00042703          	lw	a4,0(s0)
   13540:	00842683          	lw	a3,8(s0)
   13544:	00100793          	li	a5,1
   13548:	00170613          	addi	a2,a4,1
   1354c:	fff68693          	addi	a3,a3,-1
   13550:	00c42023          	sw	a2,0(s0)
   13554:	00d42423          	sw	a3,8(s0)
   13558:	01370023          	sb	s3,0(a4)
   1355c:	01442703          	lw	a4,20(s0)
   13560:	f2f71ce3          	bne	a4,a5,13498 <__swbuf_r+0x98>
   13564:	00040593          	mv	a1,s0
   13568:	00090513          	mv	a0,s2
   1356c:	5a8000ef          	jal	ra,13b14 <_fflush_r>
   13570:	f2050ee3          	beqz	a0,134ac <__swbuf_r+0xac>
   13574:	fff00493          	li	s1,-1
   13578:	f35ff06f          	j	134ac <__swbuf_r+0xac>
   1357c:	151000ef          	jal	ra,13ecc <__sinit>
   13580:	eb1ff06f          	j	13430 <__swbuf_r+0x30>

00013584 <__swbuf>:
   13584:	1c018793          	addi	a5,gp,448 # 26a80 <_impure_ptr>
   13588:	00058613          	mv	a2,a1
   1358c:	00050593          	mv	a1,a0
   13590:	0007a503          	lw	a0,0(a5)
   13594:	e6dff06f          	j	13400 <__swbuf_r>

00013598 <__swsetup_r>:
   13598:	1c018793          	addi	a5,gp,448 # 26a80 <_impure_ptr>
   1359c:	0007a783          	lw	a5,0(a5)
   135a0:	ff010113          	addi	sp,sp,-16
   135a4:	00812423          	sw	s0,8(sp)
   135a8:	00912223          	sw	s1,4(sp)
   135ac:	00112623          	sw	ra,12(sp)
   135b0:	00050493          	mv	s1,a0
   135b4:	00058413          	mv	s0,a1
   135b8:	00078663          	beqz	a5,135c4 <__swsetup_r+0x2c>
   135bc:	0387a703          	lw	a4,56(a5)
   135c0:	08070663          	beqz	a4,1364c <__swsetup_r+0xb4>
   135c4:	00c41703          	lh	a4,12(s0)
   135c8:	01071793          	slli	a5,a4,0x10
   135cc:	0107d793          	srli	a5,a5,0x10
   135d0:	0087f693          	andi	a3,a5,8
   135d4:	08068a63          	beqz	a3,13668 <__swsetup_r+0xd0>
   135d8:	01042683          	lw	a3,16(s0)
   135dc:	0a068a63          	beqz	a3,13690 <__swsetup_r+0xf8>
   135e0:	0017f713          	andi	a4,a5,1
   135e4:	02070863          	beqz	a4,13614 <__swsetup_r+0x7c>
   135e8:	01442783          	lw	a5,20(s0)
   135ec:	00042423          	sw	zero,8(s0)
   135f0:	00000513          	li	a0,0
   135f4:	40f007b3          	neg	a5,a5
   135f8:	00f42c23          	sw	a5,24(s0)
   135fc:	02068a63          	beqz	a3,13630 <__swsetup_r+0x98>
   13600:	00c12083          	lw	ra,12(sp)
   13604:	00812403          	lw	s0,8(sp)
   13608:	00412483          	lw	s1,4(sp)
   1360c:	01010113          	addi	sp,sp,16
   13610:	00008067          	ret
   13614:	0027f793          	andi	a5,a5,2
   13618:	00000713          	li	a4,0
   1361c:	00079463          	bnez	a5,13624 <__swsetup_r+0x8c>
   13620:	01442703          	lw	a4,20(s0)
   13624:	00e42423          	sw	a4,8(s0)
   13628:	00000513          	li	a0,0
   1362c:	fc069ae3          	bnez	a3,13600 <__swsetup_r+0x68>
   13630:	00c41783          	lh	a5,12(s0)
   13634:	0807f713          	andi	a4,a5,128
   13638:	fc0704e3          	beqz	a4,13600 <__swsetup_r+0x68>
   1363c:	0407e793          	ori	a5,a5,64
   13640:	00f41623          	sh	a5,12(s0)
   13644:	fff00513          	li	a0,-1
   13648:	fb9ff06f          	j	13600 <__swsetup_r+0x68>
   1364c:	00078513          	mv	a0,a5
   13650:	07d000ef          	jal	ra,13ecc <__sinit>
   13654:	00c41703          	lh	a4,12(s0)
   13658:	01071793          	slli	a5,a4,0x10
   1365c:	0107d793          	srli	a5,a5,0x10
   13660:	0087f693          	andi	a3,a5,8
   13664:	f6069ae3          	bnez	a3,135d8 <__swsetup_r+0x40>
   13668:	0107f693          	andi	a3,a5,16
   1366c:	06068e63          	beqz	a3,136e8 <__swsetup_r+0x150>
   13670:	0047f793          	andi	a5,a5,4
   13674:	04079063          	bnez	a5,136b4 <__swsetup_r+0x11c>
   13678:	01042683          	lw	a3,16(s0)
   1367c:	00876793          	ori	a5,a4,8
   13680:	00f41623          	sh	a5,12(s0)
   13684:	01079793          	slli	a5,a5,0x10
   13688:	0107d793          	srli	a5,a5,0x10
   1368c:	f4069ae3          	bnez	a3,135e0 <__swsetup_r+0x48>
   13690:	2807f713          	andi	a4,a5,640
   13694:	20000613          	li	a2,512
   13698:	f4c704e3          	beq	a4,a2,135e0 <__swsetup_r+0x48>
   1369c:	00040593          	mv	a1,s0
   136a0:	00048513          	mv	a0,s1
   136a4:	2f5030ef          	jal	ra,17198 <__smakebuf_r>
   136a8:	00c45783          	lhu	a5,12(s0)
   136ac:	01042683          	lw	a3,16(s0)
   136b0:	f31ff06f          	j	135e0 <__swsetup_r+0x48>
   136b4:	03042583          	lw	a1,48(s0)
   136b8:	00058e63          	beqz	a1,136d4 <__swsetup_r+0x13c>
   136bc:	04040793          	addi	a5,s0,64
   136c0:	00f58863          	beq	a1,a5,136d0 <__swsetup_r+0x138>
   136c4:	00048513          	mv	a0,s1
   136c8:	175000ef          	jal	ra,1403c <_free_r>
   136cc:	00c41703          	lh	a4,12(s0)
   136d0:	02042823          	sw	zero,48(s0)
   136d4:	01042683          	lw	a3,16(s0)
   136d8:	fdb77713          	andi	a4,a4,-37
   136dc:	00042223          	sw	zero,4(s0)
   136e0:	00d42023          	sw	a3,0(s0)
   136e4:	f99ff06f          	j	1367c <__swsetup_r+0xe4>
   136e8:	00900793          	li	a5,9
   136ec:	00f4a023          	sw	a5,0(s1)
   136f0:	04076713          	ori	a4,a4,64
   136f4:	00e41623          	sh	a4,12(s0)
   136f8:	fff00513          	li	a0,-1
   136fc:	f05ff06f          	j	13600 <__swsetup_r+0x68>

00013700 <__register_exitproc>:
   13700:	1b818793          	addi	a5,gp,440 # 26a78 <_global_impure_ptr>
   13704:	0007a703          	lw	a4,0(a5)
   13708:	14872783          	lw	a5,328(a4)
   1370c:	04078c63          	beqz	a5,13764 <__register_exitproc+0x64>
   13710:	0047a703          	lw	a4,4(a5)
   13714:	01f00813          	li	a6,31
   13718:	06e84e63          	blt	a6,a4,13794 <__register_exitproc+0x94>
   1371c:	00271813          	slli	a6,a4,0x2
   13720:	02050663          	beqz	a0,1374c <__register_exitproc+0x4c>
   13724:	01078333          	add	t1,a5,a6
   13728:	08c32423          	sw	a2,136(t1)
   1372c:	1887a883          	lw	a7,392(a5)
   13730:	00100613          	li	a2,1
   13734:	00e61633          	sll	a2,a2,a4
   13738:	00c8e8b3          	or	a7,a7,a2
   1373c:	1917a423          	sw	a7,392(a5)
   13740:	10d32423          	sw	a3,264(t1)
   13744:	00200693          	li	a3,2
   13748:	02d50463          	beq	a0,a3,13770 <__register_exitproc+0x70>
   1374c:	00170713          	addi	a4,a4,1
   13750:	00e7a223          	sw	a4,4(a5)
   13754:	010787b3          	add	a5,a5,a6
   13758:	00b7a423          	sw	a1,8(a5)
   1375c:	00000513          	li	a0,0
   13760:	00008067          	ret
   13764:	14c70793          	addi	a5,a4,332
   13768:	14f72423          	sw	a5,328(a4)
   1376c:	fa5ff06f          	j	13710 <__register_exitproc+0x10>
   13770:	18c7a683          	lw	a3,396(a5)
   13774:	00170713          	addi	a4,a4,1
   13778:	00e7a223          	sw	a4,4(a5)
   1377c:	00c6e633          	or	a2,a3,a2
   13780:	18c7a623          	sw	a2,396(a5)
   13784:	010787b3          	add	a5,a5,a6
   13788:	00b7a423          	sw	a1,8(a5)
   1378c:	00000513          	li	a0,0
   13790:	00008067          	ret
   13794:	fff00513          	li	a0,-1
   13798:	00008067          	ret

0001379c <__call_exitprocs>:
   1379c:	fd010113          	addi	sp,sp,-48
   137a0:	1b818793          	addi	a5,gp,440 # 26a78 <_global_impure_ptr>
   137a4:	01812423          	sw	s8,8(sp)
   137a8:	0007ac03          	lw	s8,0(a5)
   137ac:	01312e23          	sw	s3,28(sp)
   137b0:	01412c23          	sw	s4,24(sp)
   137b4:	01512a23          	sw	s5,20(sp)
   137b8:	01612823          	sw	s6,16(sp)
   137bc:	02112623          	sw	ra,44(sp)
   137c0:	02812423          	sw	s0,40(sp)
   137c4:	02912223          	sw	s1,36(sp)
   137c8:	03212023          	sw	s2,32(sp)
   137cc:	01712623          	sw	s7,12(sp)
   137d0:	00050a93          	mv	s5,a0
   137d4:	00058b13          	mv	s6,a1
   137d8:	00100a13          	li	s4,1
   137dc:	fff00993          	li	s3,-1
   137e0:	148c2903          	lw	s2,328(s8)
   137e4:	02090863          	beqz	s2,13814 <__call_exitprocs+0x78>
   137e8:	00492483          	lw	s1,4(s2)
   137ec:	fff48413          	addi	s0,s1,-1
   137f0:	02044263          	bltz	s0,13814 <__call_exitprocs+0x78>
   137f4:	00249493          	slli	s1,s1,0x2
   137f8:	009904b3          	add	s1,s2,s1
   137fc:	040b0463          	beqz	s6,13844 <__call_exitprocs+0xa8>
   13800:	1044a783          	lw	a5,260(s1)
   13804:	05678063          	beq	a5,s6,13844 <__call_exitprocs+0xa8>
   13808:	fff40413          	addi	s0,s0,-1
   1380c:	ffc48493          	addi	s1,s1,-4
   13810:	ff3416e3          	bne	s0,s3,137fc <__call_exitprocs+0x60>
   13814:	02c12083          	lw	ra,44(sp)
   13818:	02812403          	lw	s0,40(sp)
   1381c:	02412483          	lw	s1,36(sp)
   13820:	02012903          	lw	s2,32(sp)
   13824:	01c12983          	lw	s3,28(sp)
   13828:	01812a03          	lw	s4,24(sp)
   1382c:	01412a83          	lw	s5,20(sp)
   13830:	01012b03          	lw	s6,16(sp)
   13834:	00c12b83          	lw	s7,12(sp)
   13838:	00812c03          	lw	s8,8(sp)
   1383c:	03010113          	addi	sp,sp,48
   13840:	00008067          	ret
   13844:	00492783          	lw	a5,4(s2)
   13848:	0044a683          	lw	a3,4(s1)
   1384c:	fff78793          	addi	a5,a5,-1
   13850:	04878a63          	beq	a5,s0,138a4 <__call_exitprocs+0x108>
   13854:	0004a223          	sw	zero,4(s1)
   13858:	fa0688e3          	beqz	a3,13808 <__call_exitprocs+0x6c>
   1385c:	18892783          	lw	a5,392(s2)
   13860:	008a1733          	sll	a4,s4,s0
   13864:	00492b83          	lw	s7,4(s2)
   13868:	00f777b3          	and	a5,a4,a5
   1386c:	00079e63          	bnez	a5,13888 <__call_exitprocs+0xec>
   13870:	000680e7          	jalr	a3
   13874:	00492783          	lw	a5,4(s2)
   13878:	f77794e3          	bne	a5,s7,137e0 <__call_exitprocs+0x44>
   1387c:	148c2783          	lw	a5,328(s8)
   13880:	f92784e3          	beq	a5,s2,13808 <__call_exitprocs+0x6c>
   13884:	f5dff06f          	j	137e0 <__call_exitprocs+0x44>
   13888:	18c92783          	lw	a5,396(s2)
   1388c:	0844a583          	lw	a1,132(s1)
   13890:	00f77733          	and	a4,a4,a5
   13894:	00071c63          	bnez	a4,138ac <__call_exitprocs+0x110>
   13898:	000a8513          	mv	a0,s5
   1389c:	000680e7          	jalr	a3
   138a0:	fd5ff06f          	j	13874 <__call_exitprocs+0xd8>
   138a4:	00892223          	sw	s0,4(s2)
   138a8:	fb1ff06f          	j	13858 <__call_exitprocs+0xbc>
   138ac:	00058513          	mv	a0,a1
   138b0:	000680e7          	jalr	a3
   138b4:	fc1ff06f          	j	13874 <__call_exitprocs+0xd8>

000138b8 <__sflush_r>:
   138b8:	00c59783          	lh	a5,12(a1)
   138bc:	fe010113          	addi	sp,sp,-32
   138c0:	00812c23          	sw	s0,24(sp)
   138c4:	01079713          	slli	a4,a5,0x10
   138c8:	01075713          	srli	a4,a4,0x10
   138cc:	01312623          	sw	s3,12(sp)
   138d0:	00112e23          	sw	ra,28(sp)
   138d4:	00912a23          	sw	s1,20(sp)
   138d8:	01212823          	sw	s2,16(sp)
   138dc:	00877693          	andi	a3,a4,8
   138e0:	00058413          	mv	s0,a1
   138e4:	00050993          	mv	s3,a0
   138e8:	10069a63          	bnez	a3,139fc <__sflush_r+0x144>
   138ec:	00001737          	lui	a4,0x1
   138f0:	80070713          	addi	a4,a4,-2048 # 800 <register_fini-0xf874>
   138f4:	0045a683          	lw	a3,4(a1)
   138f8:	00e7e7b3          	or	a5,a5,a4
   138fc:	00f59623          	sh	a5,12(a1)
   13900:	18d05063          	blez	a3,13a80 <__sflush_r+0x1c8>
   13904:	02842703          	lw	a4,40(s0)
   13908:	0c070a63          	beqz	a4,139dc <__sflush_r+0x124>
   1390c:	01079793          	slli	a5,a5,0x10
   13910:	0107d793          	srli	a5,a5,0x10
   13914:	0009a483          	lw	s1,0(s3)
   13918:	01379693          	slli	a3,a5,0x13
   1391c:	0009a023          	sw	zero,0(s3)
   13920:	01c42583          	lw	a1,28(s0)
   13924:	1606c463          	bltz	a3,13a8c <__sflush_r+0x1d4>
   13928:	00100693          	li	a3,1
   1392c:	00000613          	li	a2,0
   13930:	00098513          	mv	a0,s3
   13934:	000700e7          	jalr	a4
   13938:	fff00793          	li	a5,-1
   1393c:	18f50863          	beq	a0,a5,13acc <__sflush_r+0x214>
   13940:	00c45783          	lhu	a5,12(s0)
   13944:	02842703          	lw	a4,40(s0)
   13948:	01c42583          	lw	a1,28(s0)
   1394c:	0047f793          	andi	a5,a5,4
   13950:	00078e63          	beqz	a5,1396c <__sflush_r+0xb4>
   13954:	00442683          	lw	a3,4(s0)
   13958:	03042783          	lw	a5,48(s0)
   1395c:	40d50533          	sub	a0,a0,a3
   13960:	00078663          	beqz	a5,1396c <__sflush_r+0xb4>
   13964:	03c42783          	lw	a5,60(s0)
   13968:	40f50533          	sub	a0,a0,a5
   1396c:	00050613          	mv	a2,a0
   13970:	00000693          	li	a3,0
   13974:	00098513          	mv	a0,s3
   13978:	000700e7          	jalr	a4
   1397c:	fff00793          	li	a5,-1
   13980:	10f51a63          	bne	a0,a5,13a94 <__sflush_r+0x1dc>
   13984:	0009a703          	lw	a4,0(s3)
   13988:	00c41783          	lh	a5,12(s0)
   1398c:	16070463          	beqz	a4,13af4 <__sflush_r+0x23c>
   13990:	01d00693          	li	a3,29
   13994:	00d70663          	beq	a4,a3,139a0 <__sflush_r+0xe8>
   13998:	01600693          	li	a3,22
   1399c:	0cd71063          	bne	a4,a3,13a5c <__sflush_r+0x1a4>
   139a0:	01042683          	lw	a3,16(s0)
   139a4:	fffff737          	lui	a4,0xfffff
   139a8:	7ff70713          	addi	a4,a4,2047 # fffff7ff <__BSS_END__+0xfffd8d17>
   139ac:	00e7f7b3          	and	a5,a5,a4
   139b0:	00f41623          	sh	a5,12(s0)
   139b4:	00042223          	sw	zero,4(s0)
   139b8:	00d42023          	sw	a3,0(s0)
   139bc:	03042583          	lw	a1,48(s0)
   139c0:	0099a023          	sw	s1,0(s3)
   139c4:	00058c63          	beqz	a1,139dc <__sflush_r+0x124>
   139c8:	04040793          	addi	a5,s0,64
   139cc:	00f58663          	beq	a1,a5,139d8 <__sflush_r+0x120>
   139d0:	00098513          	mv	a0,s3
   139d4:	668000ef          	jal	ra,1403c <_free_r>
   139d8:	02042823          	sw	zero,48(s0)
   139dc:	00000513          	li	a0,0
   139e0:	01c12083          	lw	ra,28(sp)
   139e4:	01812403          	lw	s0,24(sp)
   139e8:	01412483          	lw	s1,20(sp)
   139ec:	01012903          	lw	s2,16(sp)
   139f0:	00c12983          	lw	s3,12(sp)
   139f4:	02010113          	addi	sp,sp,32
   139f8:	00008067          	ret
   139fc:	0105a903          	lw	s2,16(a1)
   13a00:	fc090ee3          	beqz	s2,139dc <__sflush_r+0x124>
   13a04:	0005a483          	lw	s1,0(a1)
   13a08:	00377713          	andi	a4,a4,3
   13a0c:	0125a023          	sw	s2,0(a1)
   13a10:	412484b3          	sub	s1,s1,s2
   13a14:	00000793          	li	a5,0
   13a18:	00071463          	bnez	a4,13a20 <__sflush_r+0x168>
   13a1c:	0145a783          	lw	a5,20(a1)
   13a20:	00f42423          	sw	a5,8(s0)
   13a24:	00904863          	bgtz	s1,13a34 <__sflush_r+0x17c>
   13a28:	fb5ff06f          	j	139dc <__sflush_r+0x124>
   13a2c:	00a90933          	add	s2,s2,a0
   13a30:	fa9056e3          	blez	s1,139dc <__sflush_r+0x124>
   13a34:	02442783          	lw	a5,36(s0)
   13a38:	01c42583          	lw	a1,28(s0)
   13a3c:	00048693          	mv	a3,s1
   13a40:	00090613          	mv	a2,s2
   13a44:	00098513          	mv	a0,s3
   13a48:	000780e7          	jalr	a5
   13a4c:	40a484b3          	sub	s1,s1,a0
   13a50:	fca04ee3          	bgtz	a0,13a2c <__sflush_r+0x174>
   13a54:	00c45783          	lhu	a5,12(s0)
   13a58:	fff00513          	li	a0,-1
   13a5c:	0407e793          	ori	a5,a5,64
   13a60:	00f41623          	sh	a5,12(s0)
   13a64:	01c12083          	lw	ra,28(sp)
   13a68:	01812403          	lw	s0,24(sp)
   13a6c:	01412483          	lw	s1,20(sp)
   13a70:	01012903          	lw	s2,16(sp)
   13a74:	00c12983          	lw	s3,12(sp)
   13a78:	02010113          	addi	sp,sp,32
   13a7c:	00008067          	ret
   13a80:	03c5a703          	lw	a4,60(a1)
   13a84:	e8e040e3          	bgtz	a4,13904 <__sflush_r+0x4c>
   13a88:	f55ff06f          	j	139dc <__sflush_r+0x124>
   13a8c:	05042503          	lw	a0,80(s0)
   13a90:	ebdff06f          	j	1394c <__sflush_r+0x94>
   13a94:	00c45783          	lhu	a5,12(s0)
   13a98:	fffff737          	lui	a4,0xfffff
   13a9c:	7ff70713          	addi	a4,a4,2047 # fffff7ff <__BSS_END__+0xfffd8d17>
   13aa0:	00e7f7b3          	and	a5,a5,a4
   13aa4:	01042683          	lw	a3,16(s0)
   13aa8:	01079793          	slli	a5,a5,0x10
   13aac:	4107d793          	srai	a5,a5,0x10
   13ab0:	00f41623          	sh	a5,12(s0)
   13ab4:	00042223          	sw	zero,4(s0)
   13ab8:	00d42023          	sw	a3,0(s0)
   13abc:	01379713          	slli	a4,a5,0x13
   13ac0:	ee075ee3          	bgez	a4,139bc <__sflush_r+0x104>
   13ac4:	04a42823          	sw	a0,80(s0)
   13ac8:	ef5ff06f          	j	139bc <__sflush_r+0x104>
   13acc:	0009a783          	lw	a5,0(s3)
   13ad0:	e60788e3          	beqz	a5,13940 <__sflush_r+0x88>
   13ad4:	01d00713          	li	a4,29
   13ad8:	02e78863          	beq	a5,a4,13b08 <__sflush_r+0x250>
   13adc:	01600713          	li	a4,22
   13ae0:	02e78463          	beq	a5,a4,13b08 <__sflush_r+0x250>
   13ae4:	00c45783          	lhu	a5,12(s0)
   13ae8:	0407e793          	ori	a5,a5,64
   13aec:	00f41623          	sh	a5,12(s0)
   13af0:	ef1ff06f          	j	139e0 <__sflush_r+0x128>
   13af4:	fffff737          	lui	a4,0xfffff
   13af8:	7ff70713          	addi	a4,a4,2047 # fffff7ff <__BSS_END__+0xfffd8d17>
   13afc:	01042683          	lw	a3,16(s0)
   13b00:	00e7f7b3          	and	a5,a5,a4
   13b04:	fadff06f          	j	13ab0 <__sflush_r+0x1f8>
   13b08:	0099a023          	sw	s1,0(s3)
   13b0c:	00000513          	li	a0,0
   13b10:	ed1ff06f          	j	139e0 <__sflush_r+0x128>

00013b14 <_fflush_r>:
   13b14:	fe010113          	addi	sp,sp,-32
   13b18:	00812c23          	sw	s0,24(sp)
   13b1c:	00112e23          	sw	ra,28(sp)
   13b20:	00050413          	mv	s0,a0
   13b24:	00050663          	beqz	a0,13b30 <_fflush_r+0x1c>
   13b28:	03852783          	lw	a5,56(a0)
   13b2c:	02078063          	beqz	a5,13b4c <_fflush_r+0x38>
   13b30:	00c59783          	lh	a5,12(a1)
   13b34:	02079663          	bnez	a5,13b60 <_fflush_r+0x4c>
   13b38:	01c12083          	lw	ra,28(sp)
   13b3c:	01812403          	lw	s0,24(sp)
   13b40:	00000513          	li	a0,0
   13b44:	02010113          	addi	sp,sp,32
   13b48:	00008067          	ret
   13b4c:	00b12623          	sw	a1,12(sp)
   13b50:	37c000ef          	jal	ra,13ecc <__sinit>
   13b54:	00c12583          	lw	a1,12(sp)
   13b58:	00c59783          	lh	a5,12(a1)
   13b5c:	fc078ee3          	beqz	a5,13b38 <_fflush_r+0x24>
   13b60:	00040513          	mv	a0,s0
   13b64:	01812403          	lw	s0,24(sp)
   13b68:	01c12083          	lw	ra,28(sp)
   13b6c:	02010113          	addi	sp,sp,32
   13b70:	d49ff06f          	j	138b8 <__sflush_r>

00013b74 <fflush>:
   13b74:	00050593          	mv	a1,a0
   13b78:	00050863          	beqz	a0,13b88 <fflush+0x14>
   13b7c:	1c018793          	addi	a5,gp,448 # 26a80 <_impure_ptr>
   13b80:	0007a503          	lw	a0,0(a5)
   13b84:	f91ff06f          	j	13b14 <_fflush_r>
   13b88:	1b818793          	addi	a5,gp,440 # 26a78 <_global_impure_ptr>
   13b8c:	0007a503          	lw	a0,0(a5)
   13b90:	00000597          	auipc	a1,0x0
   13b94:	f8458593          	addi	a1,a1,-124 # 13b14 <_fflush_r>
   13b98:	04d0006f          	j	143e4 <_fwalk_reent>

00013b9c <__fp_lock>:
   13b9c:	00000513          	li	a0,0
   13ba0:	00008067          	ret

00013ba4 <_cleanup_r>:
   13ba4:	0000a597          	auipc	a1,0xa
   13ba8:	8b458593          	addi	a1,a1,-1868 # 1d458 <_fclose_r>
   13bac:	0390006f          	j	143e4 <_fwalk_reent>

00013bb0 <__sinit.part.0>:
   13bb0:	fe010113          	addi	sp,sp,-32
   13bb4:	00112e23          	sw	ra,28(sp)
   13bb8:	00812c23          	sw	s0,24(sp)
   13bbc:	00912a23          	sw	s1,20(sp)
   13bc0:	01212823          	sw	s2,16(sp)
   13bc4:	01312623          	sw	s3,12(sp)
   13bc8:	01412423          	sw	s4,8(sp)
   13bcc:	01512223          	sw	s5,4(sp)
   13bd0:	01612023          	sw	s6,0(sp)
   13bd4:	00452403          	lw	s0,4(a0)
   13bd8:	00000717          	auipc	a4,0x0
   13bdc:	fcc70713          	addi	a4,a4,-52 # 13ba4 <_cleanup_r>
   13be0:	02e52e23          	sw	a4,60(a0)
   13be4:	2ec50793          	addi	a5,a0,748
   13be8:	00300713          	li	a4,3
   13bec:	2ee52223          	sw	a4,740(a0)
   13bf0:	2ef52423          	sw	a5,744(a0)
   13bf4:	2e052023          	sw	zero,736(a0)
   13bf8:	00400793          	li	a5,4
   13bfc:	00050913          	mv	s2,a0
   13c00:	00f42623          	sw	a5,12(s0)
   13c04:	00800613          	li	a2,8
   13c08:	00000593          	li	a1,0
   13c0c:	06042223          	sw	zero,100(s0)
   13c10:	00042023          	sw	zero,0(s0)
   13c14:	00042223          	sw	zero,4(s0)
   13c18:	00042423          	sw	zero,8(s0)
   13c1c:	00042823          	sw	zero,16(s0)
   13c20:	00042a23          	sw	zero,20(s0)
   13c24:	00042c23          	sw	zero,24(s0)
   13c28:	05c40513          	addi	a0,s0,92
   13c2c:	945fc0ef          	jal	ra,10570 <memset>
   13c30:	00892483          	lw	s1,8(s2)
   13c34:	00005b17          	auipc	s6,0x5
   13c38:	244b0b13          	addi	s6,s6,580 # 18e78 <__sread>
   13c3c:	00005a97          	auipc	s5,0x5
   13c40:	2a0a8a93          	addi	s5,s5,672 # 18edc <__swrite>
   13c44:	00005a17          	auipc	s4,0x5
   13c48:	320a0a13          	addi	s4,s4,800 # 18f64 <__sseek>
   13c4c:	00005997          	auipc	s3,0x5
   13c50:	38098993          	addi	s3,s3,896 # 18fcc <__sclose>
   13c54:	000107b7          	lui	a5,0x10
   13c58:	03642023          	sw	s6,32(s0)
   13c5c:	03542223          	sw	s5,36(s0)
   13c60:	03442423          	sw	s4,40(s0)
   13c64:	03342623          	sw	s3,44(s0)
   13c68:	00842e23          	sw	s0,28(s0)
   13c6c:	00978793          	addi	a5,a5,9 # 10009 <register_fini-0x6b>
   13c70:	00f4a623          	sw	a5,12(s1)
   13c74:	00800613          	li	a2,8
   13c78:	00000593          	li	a1,0
   13c7c:	0604a223          	sw	zero,100(s1)
   13c80:	0004a023          	sw	zero,0(s1)
   13c84:	0004a223          	sw	zero,4(s1)
   13c88:	0004a423          	sw	zero,8(s1)
   13c8c:	0004a823          	sw	zero,16(s1)
   13c90:	0004aa23          	sw	zero,20(s1)
   13c94:	0004ac23          	sw	zero,24(s1)
   13c98:	05c48513          	addi	a0,s1,92
   13c9c:	8d5fc0ef          	jal	ra,10570 <memset>
   13ca0:	00c92403          	lw	s0,12(s2)
   13ca4:	000207b7          	lui	a5,0x20
   13ca8:	0364a023          	sw	s6,32(s1)
   13cac:	0354a223          	sw	s5,36(s1)
   13cb0:	0344a423          	sw	s4,40(s1)
   13cb4:	0334a623          	sw	s3,44(s1)
   13cb8:	0094ae23          	sw	s1,28(s1)
   13cbc:	01278793          	addi	a5,a5,18 # 20012 <__udivdi3+0x206>
   13cc0:	00f42623          	sw	a5,12(s0)
   13cc4:	06042223          	sw	zero,100(s0)
   13cc8:	00042023          	sw	zero,0(s0)
   13ccc:	00042223          	sw	zero,4(s0)
   13cd0:	00042423          	sw	zero,8(s0)
   13cd4:	00042823          	sw	zero,16(s0)
   13cd8:	00042a23          	sw	zero,20(s0)
   13cdc:	00042c23          	sw	zero,24(s0)
   13ce0:	05c40513          	addi	a0,s0,92
   13ce4:	00800613          	li	a2,8
   13ce8:	00000593          	li	a1,0
   13cec:	885fc0ef          	jal	ra,10570 <memset>
   13cf0:	01c12083          	lw	ra,28(sp)
   13cf4:	03642023          	sw	s6,32(s0)
   13cf8:	03542223          	sw	s5,36(s0)
   13cfc:	03442423          	sw	s4,40(s0)
   13d00:	03342623          	sw	s3,44(s0)
   13d04:	00842e23          	sw	s0,28(s0)
   13d08:	01812403          	lw	s0,24(sp)
   13d0c:	00100793          	li	a5,1
   13d10:	02f92c23          	sw	a5,56(s2)
   13d14:	01412483          	lw	s1,20(sp)
   13d18:	01012903          	lw	s2,16(sp)
   13d1c:	00c12983          	lw	s3,12(sp)
   13d20:	00812a03          	lw	s4,8(sp)
   13d24:	00412a83          	lw	s5,4(sp)
   13d28:	00012b03          	lw	s6,0(sp)
   13d2c:	02010113          	addi	sp,sp,32
   13d30:	00008067          	ret

00013d34 <__fp_unlock>:
   13d34:	00000513          	li	a0,0
   13d38:	00008067          	ret

00013d3c <__sfmoreglue>:
   13d3c:	ff010113          	addi	sp,sp,-16
   13d40:	fff58613          	addi	a2,a1,-1
   13d44:	00812423          	sw	s0,8(sp)
   13d48:	00161413          	slli	s0,a2,0x1
   13d4c:	00c40433          	add	s0,s0,a2
   13d50:	00241413          	slli	s0,s0,0x2
   13d54:	00c40433          	add	s0,s0,a2
   13d58:	00341413          	slli	s0,s0,0x3
   13d5c:	01212023          	sw	s2,0(sp)
   13d60:	00058913          	mv	s2,a1
   13d64:	07440593          	addi	a1,s0,116
   13d68:	00912223          	sw	s1,4(sp)
   13d6c:	00112623          	sw	ra,12(sp)
   13d70:	548030ef          	jal	ra,172b8 <_malloc_r>
   13d74:	00050493          	mv	s1,a0
   13d78:	02050063          	beqz	a0,13d98 <__sfmoreglue+0x5c>
   13d7c:	00c50513          	addi	a0,a0,12
   13d80:	0004a023          	sw	zero,0(s1)
   13d84:	0124a223          	sw	s2,4(s1)
   13d88:	00a4a423          	sw	a0,8(s1)
   13d8c:	06840613          	addi	a2,s0,104
   13d90:	00000593          	li	a1,0
   13d94:	fdcfc0ef          	jal	ra,10570 <memset>
   13d98:	00c12083          	lw	ra,12(sp)
   13d9c:	00812403          	lw	s0,8(sp)
   13da0:	00048513          	mv	a0,s1
   13da4:	00012903          	lw	s2,0(sp)
   13da8:	00412483          	lw	s1,4(sp)
   13dac:	01010113          	addi	sp,sp,16
   13db0:	00008067          	ret

00013db4 <__sfp>:
   13db4:	fe010113          	addi	sp,sp,-32
   13db8:	1b818793          	addi	a5,gp,440 # 26a78 <_global_impure_ptr>
   13dbc:	01212823          	sw	s2,16(sp)
   13dc0:	0007a903          	lw	s2,0(a5)
   13dc4:	01312623          	sw	s3,12(sp)
   13dc8:	00112e23          	sw	ra,28(sp)
   13dcc:	03892783          	lw	a5,56(s2)
   13dd0:	00812c23          	sw	s0,24(sp)
   13dd4:	00912a23          	sw	s1,20(sp)
   13dd8:	00050993          	mv	s3,a0
   13ddc:	0a078663          	beqz	a5,13e88 <__sfp+0xd4>
   13de0:	2e090913          	addi	s2,s2,736
   13de4:	fff00493          	li	s1,-1
   13de8:	00492783          	lw	a5,4(s2)
   13dec:	00892403          	lw	s0,8(s2)
   13df0:	fff78793          	addi	a5,a5,-1
   13df4:	0007da63          	bgez	a5,13e08 <__sfp+0x54>
   13df8:	0800006f          	j	13e78 <__sfp+0xc4>
   13dfc:	fff78793          	addi	a5,a5,-1
   13e00:	06840413          	addi	s0,s0,104
   13e04:	06978a63          	beq	a5,s1,13e78 <__sfp+0xc4>
   13e08:	00c41703          	lh	a4,12(s0)
   13e0c:	fe0718e3          	bnez	a4,13dfc <__sfp+0x48>
   13e10:	ffff07b7          	lui	a5,0xffff0
   13e14:	00178793          	addi	a5,a5,1 # ffff0001 <__BSS_END__+0xfffc9519>
   13e18:	06042223          	sw	zero,100(s0)
   13e1c:	00042023          	sw	zero,0(s0)
   13e20:	00042223          	sw	zero,4(s0)
   13e24:	00042423          	sw	zero,8(s0)
   13e28:	00f42623          	sw	a5,12(s0)
   13e2c:	00042823          	sw	zero,16(s0)
   13e30:	00042a23          	sw	zero,20(s0)
   13e34:	00042c23          	sw	zero,24(s0)
   13e38:	00800613          	li	a2,8
   13e3c:	00000593          	li	a1,0
   13e40:	05c40513          	addi	a0,s0,92
   13e44:	f2cfc0ef          	jal	ra,10570 <memset>
   13e48:	02042823          	sw	zero,48(s0)
   13e4c:	02042a23          	sw	zero,52(s0)
   13e50:	04042223          	sw	zero,68(s0)
   13e54:	04042423          	sw	zero,72(s0)
   13e58:	00040513          	mv	a0,s0
   13e5c:	01c12083          	lw	ra,28(sp)
   13e60:	01812403          	lw	s0,24(sp)
   13e64:	01412483          	lw	s1,20(sp)
   13e68:	01012903          	lw	s2,16(sp)
   13e6c:	00c12983          	lw	s3,12(sp)
   13e70:	02010113          	addi	sp,sp,32
   13e74:	00008067          	ret
   13e78:	00092403          	lw	s0,0(s2)
   13e7c:	00040c63          	beqz	s0,13e94 <__sfp+0xe0>
   13e80:	00040913          	mv	s2,s0
   13e84:	f65ff06f          	j	13de8 <__sfp+0x34>
   13e88:	00090513          	mv	a0,s2
   13e8c:	d25ff0ef          	jal	ra,13bb0 <__sinit.part.0>
   13e90:	f51ff06f          	j	13de0 <__sfp+0x2c>
   13e94:	00400593          	li	a1,4
   13e98:	00098513          	mv	a0,s3
   13e9c:	ea1ff0ef          	jal	ra,13d3c <__sfmoreglue>
   13ea0:	00a92023          	sw	a0,0(s2)
   13ea4:	00050413          	mv	s0,a0
   13ea8:	fc051ce3          	bnez	a0,13e80 <__sfp+0xcc>
   13eac:	00c00793          	li	a5,12
   13eb0:	00f9a023          	sw	a5,0(s3)
   13eb4:	fa5ff06f          	j	13e58 <__sfp+0xa4>

00013eb8 <_cleanup>:
   13eb8:	1b818793          	addi	a5,gp,440 # 26a78 <_global_impure_ptr>
   13ebc:	0007a503          	lw	a0,0(a5)
   13ec0:	00009597          	auipc	a1,0x9
   13ec4:	59858593          	addi	a1,a1,1432 # 1d458 <_fclose_r>
   13ec8:	51c0006f          	j	143e4 <_fwalk_reent>

00013ecc <__sinit>:
   13ecc:	03852783          	lw	a5,56(a0)
   13ed0:	00078463          	beqz	a5,13ed8 <__sinit+0xc>
   13ed4:	00008067          	ret
   13ed8:	cd9ff06f          	j	13bb0 <__sinit.part.0>

00013edc <__sfp_lock_acquire>:
   13edc:	00008067          	ret

00013ee0 <__sfp_lock_release>:
   13ee0:	00008067          	ret

00013ee4 <__sinit_lock_acquire>:
   13ee4:	00008067          	ret

00013ee8 <__sinit_lock_release>:
   13ee8:	00008067          	ret

00013eec <__fp_lock_all>:
   13eec:	1c018793          	addi	a5,gp,448 # 26a80 <_impure_ptr>
   13ef0:	0007a503          	lw	a0,0(a5)
   13ef4:	00000597          	auipc	a1,0x0
   13ef8:	ca858593          	addi	a1,a1,-856 # 13b9c <__fp_lock>
   13efc:	4380006f          	j	14334 <_fwalk>

00013f00 <__fp_unlock_all>:
   13f00:	1c018793          	addi	a5,gp,448 # 26a80 <_impure_ptr>
   13f04:	0007a503          	lw	a0,0(a5)
   13f08:	00000597          	auipc	a1,0x0
   13f0c:	e2c58593          	addi	a1,a1,-468 # 13d34 <__fp_unlock>
   13f10:	4240006f          	j	14334 <_fwalk>

00013f14 <_malloc_trim_r>:
   13f14:	fe010113          	addi	sp,sp,-32
   13f18:	00812c23          	sw	s0,24(sp)
   13f1c:	00912a23          	sw	s1,20(sp)
   13f20:	01212823          	sw	s2,16(sp)
   13f24:	01312623          	sw	s3,12(sp)
   13f28:	00058413          	mv	s0,a1
   13f2c:	00112e23          	sw	ra,28(sp)
   13f30:	d9418993          	addi	s3,gp,-620 # 26654 <__malloc_av_>
   13f34:	00050913          	mv	s2,a0
   13f38:	49d030ef          	jal	ra,17bd4 <__malloc_lock>
   13f3c:	0089a683          	lw	a3,8(s3)
   13f40:	00001737          	lui	a4,0x1
   13f44:	fef70793          	addi	a5,a4,-17 # fef <register_fini-0xf085>
   13f48:	0046a483          	lw	s1,4(a3)
   13f4c:	40878433          	sub	s0,a5,s0
   13f50:	ffc4f493          	andi	s1,s1,-4
   13f54:	00940433          	add	s0,s0,s1
   13f58:	00c45413          	srli	s0,s0,0xc
   13f5c:	fff40413          	addi	s0,s0,-1
   13f60:	00c41413          	slli	s0,s0,0xc
   13f64:	00e44e63          	blt	s0,a4,13f80 <_malloc_trim_r+0x6c>
   13f68:	00000593          	li	a1,0
   13f6c:	00090513          	mv	a0,s2
   13f70:	51d040ef          	jal	ra,18c8c <_sbrk_r>
   13f74:	0089a783          	lw	a5,8(s3)
   13f78:	009787b3          	add	a5,a5,s1
   13f7c:	02f50663          	beq	a0,a5,13fa8 <_malloc_trim_r+0x94>
   13f80:	00090513          	mv	a0,s2
   13f84:	455030ef          	jal	ra,17bd8 <__malloc_unlock>
   13f88:	01c12083          	lw	ra,28(sp)
   13f8c:	01812403          	lw	s0,24(sp)
   13f90:	01412483          	lw	s1,20(sp)
   13f94:	01012903          	lw	s2,16(sp)
   13f98:	00c12983          	lw	s3,12(sp)
   13f9c:	00000513          	li	a0,0
   13fa0:	02010113          	addi	sp,sp,32
   13fa4:	00008067          	ret
   13fa8:	408005b3          	neg	a1,s0
   13fac:	00090513          	mv	a0,s2
   13fb0:	4dd040ef          	jal	ra,18c8c <_sbrk_r>
   13fb4:	fff00793          	li	a5,-1
   13fb8:	04f50663          	beq	a0,a5,14004 <_malloc_trim_r+0xf0>
   13fbc:	1fc18793          	addi	a5,gp,508 # 26abc <__malloc_current_mallinfo>
   13fc0:	0007a783          	lw	a5,0(a5)
   13fc4:	0089a703          	lw	a4,8(s3)
   13fc8:	408484b3          	sub	s1,s1,s0
   13fcc:	0014e493          	ori	s1,s1,1
   13fd0:	40878433          	sub	s0,a5,s0
   13fd4:	00090513          	mv	a0,s2
   13fd8:	00972223          	sw	s1,4(a4)
   13fdc:	1e81ae23          	sw	s0,508(gp) # 26abc <__malloc_current_mallinfo>
   13fe0:	3f9030ef          	jal	ra,17bd8 <__malloc_unlock>
   13fe4:	01c12083          	lw	ra,28(sp)
   13fe8:	01812403          	lw	s0,24(sp)
   13fec:	01412483          	lw	s1,20(sp)
   13ff0:	01012903          	lw	s2,16(sp)
   13ff4:	00c12983          	lw	s3,12(sp)
   13ff8:	00100513          	li	a0,1
   13ffc:	02010113          	addi	sp,sp,32
   14000:	00008067          	ret
   14004:	00000593          	li	a1,0
   14008:	00090513          	mv	a0,s2
   1400c:	481040ef          	jal	ra,18c8c <_sbrk_r>
   14010:	0089a703          	lw	a4,8(s3)
   14014:	00f00693          	li	a3,15
   14018:	40e507b3          	sub	a5,a0,a4
   1401c:	f6f6d2e3          	bge	a3,a5,13f80 <_malloc_trim_r+0x6c>
   14020:	1c418693          	addi	a3,gp,452 # 26a84 <__malloc_sbrk_base>
   14024:	0006a683          	lw	a3,0(a3)
   14028:	0017e793          	ori	a5,a5,1
   1402c:	00f72223          	sw	a5,4(a4)
   14030:	40d50533          	sub	a0,a0,a3
   14034:	1ea1ae23          	sw	a0,508(gp) # 26abc <__malloc_current_mallinfo>
   14038:	f49ff06f          	j	13f80 <_malloc_trim_r+0x6c>

0001403c <_free_r>:
   1403c:	12058663          	beqz	a1,14168 <_free_r+0x12c>
   14040:	ff010113          	addi	sp,sp,-16
   14044:	00812423          	sw	s0,8(sp)
   14048:	00912223          	sw	s1,4(sp)
   1404c:	00058413          	mv	s0,a1
   14050:	00050493          	mv	s1,a0
   14054:	00112623          	sw	ra,12(sp)
   14058:	37d030ef          	jal	ra,17bd4 <__malloc_lock>
   1405c:	ffc42583          	lw	a1,-4(s0)
   14060:	ff840713          	addi	a4,s0,-8
   14064:	d9418513          	addi	a0,gp,-620 # 26654 <__malloc_av_>
   14068:	ffe5f793          	andi	a5,a1,-2
   1406c:	00f70633          	add	a2,a4,a5
   14070:	00462683          	lw	a3,4(a2)
   14074:	00852803          	lw	a6,8(a0)
   14078:	ffc6f693          	andi	a3,a3,-4
   1407c:	18c80e63          	beq	a6,a2,14218 <_free_r+0x1dc>
   14080:	00d62223          	sw	a3,4(a2)
   14084:	0015f593          	andi	a1,a1,1
   14088:	00d60833          	add	a6,a2,a3
   1408c:	0a059063          	bnez	a1,1412c <_free_r+0xf0>
   14090:	ff842303          	lw	t1,-8(s0)
   14094:	00482583          	lw	a1,4(a6)
   14098:	d9c18893          	addi	a7,gp,-612 # 2665c <__malloc_av_+0x8>
   1409c:	40670733          	sub	a4,a4,t1
   140a0:	00872803          	lw	a6,8(a4)
   140a4:	006787b3          	add	a5,a5,t1
   140a8:	0015f593          	andi	a1,a1,1
   140ac:	15180063          	beq	a6,a7,141ec <_free_r+0x1b0>
   140b0:	00c72303          	lw	t1,12(a4)
   140b4:	00682623          	sw	t1,12(a6)
   140b8:	01032423          	sw	a6,8(t1)
   140bc:	1c058a63          	beqz	a1,14290 <_free_r+0x254>
   140c0:	0017e693          	ori	a3,a5,1
   140c4:	00d72223          	sw	a3,4(a4)
   140c8:	00f62023          	sw	a5,0(a2)
   140cc:	1ff00693          	li	a3,511
   140d0:	0af6e863          	bltu	a3,a5,14180 <_free_r+0x144>
   140d4:	0037d793          	srli	a5,a5,0x3
   140d8:	00178693          	addi	a3,a5,1
   140dc:	00369693          	slli	a3,a3,0x3
   140e0:	00452583          	lw	a1,4(a0)
   140e4:	00d50533          	add	a0,a0,a3
   140e8:	00052603          	lw	a2,0(a0)
   140ec:	4027d693          	srai	a3,a5,0x2
   140f0:	00100793          	li	a5,1
   140f4:	00d797b3          	sll	a5,a5,a3
   140f8:	00b7e7b3          	or	a5,a5,a1
   140fc:	ff850693          	addi	a3,a0,-8
   14100:	00d72623          	sw	a3,12(a4)
   14104:	00c72423          	sw	a2,8(a4)
   14108:	d8f1ac23          	sw	a5,-616(gp) # 26658 <__malloc_av_+0x4>
   1410c:	00e52023          	sw	a4,0(a0)
   14110:	00e62623          	sw	a4,12(a2)
   14114:	00812403          	lw	s0,8(sp)
   14118:	00c12083          	lw	ra,12(sp)
   1411c:	00048513          	mv	a0,s1
   14120:	00412483          	lw	s1,4(sp)
   14124:	01010113          	addi	sp,sp,16
   14128:	2b10306f          	j	17bd8 <__malloc_unlock>
   1412c:	00482583          	lw	a1,4(a6)
   14130:	0015f593          	andi	a1,a1,1
   14134:	02059c63          	bnez	a1,1416c <_free_r+0x130>
   14138:	00d787b3          	add	a5,a5,a3
   1413c:	d9c18893          	addi	a7,gp,-612 # 2665c <__malloc_av_+0x8>
   14140:	00862683          	lw	a3,8(a2)
   14144:	0017e813          	ori	a6,a5,1
   14148:	00f705b3          	add	a1,a4,a5
   1414c:	15168e63          	beq	a3,a7,142a8 <_free_r+0x26c>
   14150:	00c62603          	lw	a2,12(a2)
   14154:	00c6a623          	sw	a2,12(a3)
   14158:	00d62423          	sw	a3,8(a2)
   1415c:	01072223          	sw	a6,4(a4)
   14160:	00f5a023          	sw	a5,0(a1)
   14164:	f69ff06f          	j	140cc <_free_r+0x90>
   14168:	00008067          	ret
   1416c:	0017e693          	ori	a3,a5,1
   14170:	fed42e23          	sw	a3,-4(s0)
   14174:	00f62023          	sw	a5,0(a2)
   14178:	1ff00693          	li	a3,511
   1417c:	f4f6fce3          	bgeu	a3,a5,140d4 <_free_r+0x98>
   14180:	0097d693          	srli	a3,a5,0x9
   14184:	00400613          	li	a2,4
   14188:	0ed66263          	bltu	a2,a3,1426c <_free_r+0x230>
   1418c:	0067d693          	srli	a3,a5,0x6
   14190:	03968593          	addi	a1,a3,57
   14194:	03868613          	addi	a2,a3,56
   14198:	00359593          	slli	a1,a1,0x3
   1419c:	00b505b3          	add	a1,a0,a1
   141a0:	0005a683          	lw	a3,0(a1)
   141a4:	ff858593          	addi	a1,a1,-8
   141a8:	10d58e63          	beq	a1,a3,142c4 <_free_r+0x288>
   141ac:	0046a603          	lw	a2,4(a3)
   141b0:	ffc67613          	andi	a2,a2,-4
   141b4:	00c7f663          	bgeu	a5,a2,141c0 <_free_r+0x184>
   141b8:	0086a683          	lw	a3,8(a3)
   141bc:	fed598e3          	bne	a1,a3,141ac <_free_r+0x170>
   141c0:	00c6a583          	lw	a1,12(a3)
   141c4:	00b72623          	sw	a1,12(a4)
   141c8:	00d72423          	sw	a3,8(a4)
   141cc:	00812403          	lw	s0,8(sp)
   141d0:	00e5a423          	sw	a4,8(a1)
   141d4:	00c12083          	lw	ra,12(sp)
   141d8:	00048513          	mv	a0,s1
   141dc:	00412483          	lw	s1,4(sp)
   141e0:	00e6a623          	sw	a4,12(a3)
   141e4:	01010113          	addi	sp,sp,16
   141e8:	1f10306f          	j	17bd8 <__malloc_unlock>
   141ec:	12059c63          	bnez	a1,14324 <_free_r+0x2e8>
   141f0:	00862583          	lw	a1,8(a2)
   141f4:	00c62603          	lw	a2,12(a2)
   141f8:	00f687b3          	add	a5,a3,a5
   141fc:	0017e693          	ori	a3,a5,1
   14200:	00c5a623          	sw	a2,12(a1)
   14204:	00b62423          	sw	a1,8(a2)
   14208:	00d72223          	sw	a3,4(a4)
   1420c:	00f70733          	add	a4,a4,a5
   14210:	00f72023          	sw	a5,0(a4)
   14214:	f01ff06f          	j	14114 <_free_r+0xd8>
   14218:	0015f593          	andi	a1,a1,1
   1421c:	00d787b3          	add	a5,a5,a3
   14220:	02059063          	bnez	a1,14240 <_free_r+0x204>
   14224:	ff842583          	lw	a1,-8(s0)
   14228:	40b70733          	sub	a4,a4,a1
   1422c:	00c72683          	lw	a3,12(a4)
   14230:	00872603          	lw	a2,8(a4)
   14234:	00b787b3          	add	a5,a5,a1
   14238:	00d62623          	sw	a3,12(a2)
   1423c:	00c6a423          	sw	a2,8(a3)
   14240:	1c818693          	addi	a3,gp,456 # 26a88 <__malloc_trim_threshold>
   14244:	0017e613          	ori	a2,a5,1
   14248:	0006a683          	lw	a3,0(a3)
   1424c:	00c72223          	sw	a2,4(a4)
   14250:	d8e1ae23          	sw	a4,-612(gp) # 2665c <__malloc_av_+0x8>
   14254:	ecd7e0e3          	bltu	a5,a3,14114 <_free_r+0xd8>
   14258:	1d818793          	addi	a5,gp,472 # 26a98 <__malloc_top_pad>
   1425c:	0007a583          	lw	a1,0(a5)
   14260:	00048513          	mv	a0,s1
   14264:	cb1ff0ef          	jal	ra,13f14 <_malloc_trim_r>
   14268:	eadff06f          	j	14114 <_free_r+0xd8>
   1426c:	01400613          	li	a2,20
   14270:	02d67463          	bgeu	a2,a3,14298 <_free_r+0x25c>
   14274:	05400613          	li	a2,84
   14278:	06d66463          	bltu	a2,a3,142e0 <_free_r+0x2a4>
   1427c:	00c7d693          	srli	a3,a5,0xc
   14280:	06f68593          	addi	a1,a3,111
   14284:	06e68613          	addi	a2,a3,110
   14288:	00359593          	slli	a1,a1,0x3
   1428c:	f11ff06f          	j	1419c <_free_r+0x160>
   14290:	00d787b3          	add	a5,a5,a3
   14294:	eadff06f          	j	14140 <_free_r+0x104>
   14298:	05c68593          	addi	a1,a3,92
   1429c:	05b68613          	addi	a2,a3,91
   142a0:	00359593          	slli	a1,a1,0x3
   142a4:	ef9ff06f          	j	1419c <_free_r+0x160>
   142a8:	dae1a423          	sw	a4,-600(gp) # 26668 <__malloc_av_+0x14>
   142ac:	dae1a223          	sw	a4,-604(gp) # 26664 <__malloc_av_+0x10>
   142b0:	01172623          	sw	a7,12(a4)
   142b4:	01172423          	sw	a7,8(a4)
   142b8:	01072223          	sw	a6,4(a4)
   142bc:	00f5a023          	sw	a5,0(a1)
   142c0:	e55ff06f          	j	14114 <_free_r+0xd8>
   142c4:	00452503          	lw	a0,4(a0)
   142c8:	00100793          	li	a5,1
   142cc:	40265613          	srai	a2,a2,0x2
   142d0:	00c79633          	sll	a2,a5,a2
   142d4:	00a66633          	or	a2,a2,a0
   142d8:	d8c1ac23          	sw	a2,-616(gp) # 26658 <__malloc_av_+0x4>
   142dc:	ee9ff06f          	j	141c4 <_free_r+0x188>
   142e0:	15400613          	li	a2,340
   142e4:	00d66c63          	bltu	a2,a3,142fc <_free_r+0x2c0>
   142e8:	00f7d693          	srli	a3,a5,0xf
   142ec:	07868593          	addi	a1,a3,120
   142f0:	07768613          	addi	a2,a3,119
   142f4:	00359593          	slli	a1,a1,0x3
   142f8:	ea5ff06f          	j	1419c <_free_r+0x160>
   142fc:	55400613          	li	a2,1364
   14300:	00d66c63          	bltu	a2,a3,14318 <_free_r+0x2dc>
   14304:	0127d693          	srli	a3,a5,0x12
   14308:	07d68593          	addi	a1,a3,125
   1430c:	07c68613          	addi	a2,a3,124
   14310:	00359593          	slli	a1,a1,0x3
   14314:	e89ff06f          	j	1419c <_free_r+0x160>
   14318:	3f800593          	li	a1,1016
   1431c:	07e00613          	li	a2,126
   14320:	e7dff06f          	j	1419c <_free_r+0x160>
   14324:	0017e693          	ori	a3,a5,1
   14328:	00d72223          	sw	a3,4(a4)
   1432c:	00f62023          	sw	a5,0(a2)
   14330:	de5ff06f          	j	14114 <_free_r+0xd8>

00014334 <_fwalk>:
   14334:	fe010113          	addi	sp,sp,-32
   14338:	01512223          	sw	s5,4(sp)
   1433c:	00112e23          	sw	ra,28(sp)
   14340:	00812c23          	sw	s0,24(sp)
   14344:	00912a23          	sw	s1,20(sp)
   14348:	01212823          	sw	s2,16(sp)
   1434c:	01312623          	sw	s3,12(sp)
   14350:	01412423          	sw	s4,8(sp)
   14354:	01612023          	sw	s6,0(sp)
   14358:	2e050a93          	addi	s5,a0,736
   1435c:	080a8063          	beqz	s5,143dc <_fwalk+0xa8>
   14360:	00058b13          	mv	s6,a1
   14364:	00000a13          	li	s4,0
   14368:	00100993          	li	s3,1
   1436c:	fff00913          	li	s2,-1
   14370:	004aa483          	lw	s1,4(s5)
   14374:	008aa403          	lw	s0,8(s5)
   14378:	fff48493          	addi	s1,s1,-1
   1437c:	0204c663          	bltz	s1,143a8 <_fwalk+0x74>
   14380:	00c45783          	lhu	a5,12(s0)
   14384:	fff48493          	addi	s1,s1,-1
   14388:	00f9fc63          	bgeu	s3,a5,143a0 <_fwalk+0x6c>
   1438c:	00e41783          	lh	a5,14(s0)
   14390:	00040513          	mv	a0,s0
   14394:	01278663          	beq	a5,s2,143a0 <_fwalk+0x6c>
   14398:	000b00e7          	jalr	s6
   1439c:	00aa6a33          	or	s4,s4,a0
   143a0:	06840413          	addi	s0,s0,104
   143a4:	fd249ee3          	bne	s1,s2,14380 <_fwalk+0x4c>
   143a8:	000aaa83          	lw	s5,0(s5)
   143ac:	fc0a92e3          	bnez	s5,14370 <_fwalk+0x3c>
   143b0:	01c12083          	lw	ra,28(sp)
   143b4:	01812403          	lw	s0,24(sp)
   143b8:	000a0513          	mv	a0,s4
   143bc:	01412483          	lw	s1,20(sp)
   143c0:	01012903          	lw	s2,16(sp)
   143c4:	00c12983          	lw	s3,12(sp)
   143c8:	00812a03          	lw	s4,8(sp)
   143cc:	00412a83          	lw	s5,4(sp)
   143d0:	00012b03          	lw	s6,0(sp)
   143d4:	02010113          	addi	sp,sp,32
   143d8:	00008067          	ret
   143dc:	00000a13          	li	s4,0
   143e0:	fd1ff06f          	j	143b0 <_fwalk+0x7c>

000143e4 <_fwalk_reent>:
   143e4:	fd010113          	addi	sp,sp,-48
   143e8:	01512a23          	sw	s5,20(sp)
   143ec:	02112623          	sw	ra,44(sp)
   143f0:	02812423          	sw	s0,40(sp)
   143f4:	02912223          	sw	s1,36(sp)
   143f8:	03212023          	sw	s2,32(sp)
   143fc:	01312e23          	sw	s3,28(sp)
   14400:	01412c23          	sw	s4,24(sp)
   14404:	01612823          	sw	s6,16(sp)
   14408:	01712623          	sw	s7,12(sp)
   1440c:	2e050a93          	addi	s5,a0,736
   14410:	080a8663          	beqz	s5,1449c <_fwalk_reent+0xb8>
   14414:	00058b93          	mv	s7,a1
   14418:	00050b13          	mv	s6,a0
   1441c:	00000a13          	li	s4,0
   14420:	00100993          	li	s3,1
   14424:	fff00913          	li	s2,-1
   14428:	004aa483          	lw	s1,4(s5)
   1442c:	008aa403          	lw	s0,8(s5)
   14430:	fff48493          	addi	s1,s1,-1
   14434:	0204c863          	bltz	s1,14464 <_fwalk_reent+0x80>
   14438:	00c45783          	lhu	a5,12(s0)
   1443c:	fff48493          	addi	s1,s1,-1
   14440:	00f9fe63          	bgeu	s3,a5,1445c <_fwalk_reent+0x78>
   14444:	00e41783          	lh	a5,14(s0)
   14448:	00040593          	mv	a1,s0
   1444c:	000b0513          	mv	a0,s6
   14450:	01278663          	beq	a5,s2,1445c <_fwalk_reent+0x78>
   14454:	000b80e7          	jalr	s7
   14458:	00aa6a33          	or	s4,s4,a0
   1445c:	06840413          	addi	s0,s0,104
   14460:	fd249ce3          	bne	s1,s2,14438 <_fwalk_reent+0x54>
   14464:	000aaa83          	lw	s5,0(s5)
   14468:	fc0a90e3          	bnez	s5,14428 <_fwalk_reent+0x44>
   1446c:	02c12083          	lw	ra,44(sp)
   14470:	02812403          	lw	s0,40(sp)
   14474:	000a0513          	mv	a0,s4
   14478:	02412483          	lw	s1,36(sp)
   1447c:	02012903          	lw	s2,32(sp)
   14480:	01c12983          	lw	s3,28(sp)
   14484:	01812a03          	lw	s4,24(sp)
   14488:	01412a83          	lw	s5,20(sp)
   1448c:	01012b03          	lw	s6,16(sp)
   14490:	00c12b83          	lw	s7,12(sp)
   14494:	03010113          	addi	sp,sp,48
   14498:	00008067          	ret
   1449c:	00000a13          	li	s4,0
   144a0:	fcdff06f          	j	1446c <_fwalk_reent+0x88>

000144a4 <eshdn1>:
   144a4:	00450693          	addi	a3,a0,4
   144a8:	00000793          	li	a5,0
   144ac:	01a50513          	addi	a0,a0,26
   144b0:	ffff8837          	lui	a6,0xffff8
   144b4:	01c0006f          	j	144d0 <eshdn1+0x2c>
   144b8:	00179793          	slli	a5,a5,0x1
   144bc:	00e69023          	sh	a4,0(a3)
   144c0:	01079793          	slli	a5,a5,0x10
   144c4:	00268693          	addi	a3,a3,2
   144c8:	0107d793          	srli	a5,a5,0x10
   144cc:	02d50e63          	beq	a0,a3,14508 <eshdn1+0x64>
   144d0:	0006d703          	lhu	a4,0(a3)
   144d4:	00177613          	andi	a2,a4,1
   144d8:	00060463          	beqz	a2,144e0 <eshdn1+0x3c>
   144dc:	0017e793          	ori	a5,a5,1
   144e0:	00175713          	srli	a4,a4,0x1
   144e4:	0027f613          	andi	a2,a5,2
   144e8:	010765b3          	or	a1,a4,a6
   144ec:	fc0606e3          	beqz	a2,144b8 <eshdn1+0x14>
   144f0:	00179793          	slli	a5,a5,0x1
   144f4:	00b69023          	sh	a1,0(a3)
   144f8:	01079793          	slli	a5,a5,0x10
   144fc:	00268693          	addi	a3,a3,2
   14500:	0107d793          	srli	a5,a5,0x10
   14504:	fcd516e3          	bne	a0,a3,144d0 <eshdn1+0x2c>
   14508:	00008067          	ret

0001450c <eshup1>:
   1450c:	01850693          	addi	a3,a0,24
   14510:	00000713          	li	a4,0
   14514:	00250513          	addi	a0,a0,2
   14518:	01c0006f          	j	14534 <eshup1+0x28>
   1451c:	00171713          	slli	a4,a4,0x1
   14520:	00f69023          	sh	a5,0(a3)
   14524:	01071713          	slli	a4,a4,0x10
   14528:	ffe68693          	addi	a3,a3,-2
   1452c:	01075713          	srli	a4,a4,0x10
   14530:	04d50463          	beq	a0,a3,14578 <eshup1+0x6c>
   14534:	0006d783          	lhu	a5,0(a3)
   14538:	01079613          	slli	a2,a5,0x10
   1453c:	41065613          	srai	a2,a2,0x10
   14540:	00179793          	slli	a5,a5,0x1
   14544:	00065463          	bgez	a2,1454c <eshup1+0x40>
   14548:	00176713          	ori	a4,a4,1
   1454c:	01079793          	slli	a5,a5,0x10
   14550:	0107d793          	srli	a5,a5,0x10
   14554:	00277613          	andi	a2,a4,2
   14558:	0017e593          	ori	a1,a5,1
   1455c:	fc0600e3          	beqz	a2,1451c <eshup1+0x10>
   14560:	00171713          	slli	a4,a4,0x1
   14564:	00b69023          	sh	a1,0(a3)
   14568:	01071713          	slli	a4,a4,0x10
   1456c:	ffe68693          	addi	a3,a3,-2
   14570:	01075713          	srli	a4,a4,0x10
   14574:	fcd510e3          	bne	a0,a3,14534 <eshup1+0x28>
   14578:	00008067          	ret

0001457c <m16m>:
   1457c:	fc010113          	addi	sp,sp,-64
   14580:	03412423          	sw	s4,40(sp)
   14584:	00010a37          	lui	s4,0x10
   14588:	02812c23          	sw	s0,56(sp)
   1458c:	02912a23          	sw	s1,52(sp)
   14590:	03212823          	sw	s2,48(sp)
   14594:	03312623          	sw	s3,44(sp)
   14598:	03512223          	sw	s5,36(sp)
   1459c:	02112e23          	sw	ra,60(sp)
   145a0:	00050a93          	mv	s5,a0
   145a4:	00060493          	mv	s1,a2
   145a8:	00011d23          	sh	zero,26(sp)
   145ac:	00011e23          	sh	zero,28(sp)
   145b0:	01858913          	addi	s2,a1,24
   145b4:	01c10413          	addi	s0,sp,28
   145b8:	00810993          	addi	s3,sp,8
   145bc:	fffa0a13          	addi	s4,s4,-1 # ffff <register_fini-0x75>
   145c0:	00095783          	lhu	a5,0(s2)
   145c4:	000a8593          	mv	a1,s5
   145c8:	ffe40413          	addi	s0,s0,-2
   145cc:	ffe90913          	addi	s2,s2,-2
   145d0:	00078513          	mv	a0,a5
   145d4:	04079663          	bnez	a5,14620 <m16m+0xa4>
   145d8:	fe041f23          	sh	zero,-2(s0)
   145dc:	ff3412e3          	bne	s0,s3,145c0 <m16m+0x44>
   145e0:	00448613          	addi	a2,s1,4
   145e4:	01e10713          	addi	a4,sp,30
   145e8:	00045783          	lhu	a5,0(s0)
   145ec:	00260613          	addi	a2,a2,2
   145f0:	00240413          	addi	s0,s0,2
   145f4:	fef61f23          	sh	a5,-2(a2)
   145f8:	fee418e3          	bne	s0,a4,145e8 <m16m+0x6c>
   145fc:	03c12083          	lw	ra,60(sp)
   14600:	03812403          	lw	s0,56(sp)
   14604:	03412483          	lw	s1,52(sp)
   14608:	03012903          	lw	s2,48(sp)
   1460c:	02c12983          	lw	s3,44(sp)
   14610:	02812a03          	lw	s4,40(sp)
   14614:	02412a83          	lw	s5,36(sp)
   14618:	04010113          	addi	sp,sp,64
   1461c:	00008067          	ret
   14620:	d3dfb0ef          	jal	ra,1035c <__mulsi3>
   14624:	00245703          	lhu	a4,2(s0)
   14628:	00045683          	lhu	a3,0(s0)
   1462c:	014577b3          	and	a5,a0,s4
   14630:	00e787b3          	add	a5,a5,a4
   14634:	01055513          	srli	a0,a0,0x10
   14638:	0107d713          	srli	a4,a5,0x10
   1463c:	00d50533          	add	a0,a0,a3
   14640:	00e50533          	add	a0,a0,a4
   14644:	01055713          	srli	a4,a0,0x10
   14648:	00f41123          	sh	a5,2(s0)
   1464c:	00a41023          	sh	a0,0(s0)
   14650:	fee41f23          	sh	a4,-2(s0)
   14654:	f73416e3          	bne	s0,s3,145c0 <m16m+0x44>
   14658:	f89ff06f          	j	145e0 <m16m+0x64>

0001465c <eisnan.part.0>:
   1465c:	01250713          	addi	a4,a0,18
   14660:	00250513          	addi	a0,a0,2
   14664:	ffe55783          	lhu	a5,-2(a0)
   14668:	00079863          	bnez	a5,14678 <eisnan.part.0+0x1c>
   1466c:	fea71ae3          	bne	a4,a0,14660 <eisnan.part.0+0x4>
   14670:	00000513          	li	a0,0
   14674:	00008067          	ret
   14678:	00100513          	li	a0,1
   1467c:	00008067          	ret

00014680 <eneg>:
   14680:	ff010113          	addi	sp,sp,-16
   14684:	00812423          	sw	s0,8(sp)
   14688:	01255403          	lhu	s0,18(a0)
   1468c:	00912223          	sw	s1,4(sp)
   14690:	00112623          	sw	ra,12(sp)
   14694:	fff44793          	not	a5,s0
   14698:	01179713          	slli	a4,a5,0x11
   1469c:	00050493          	mv	s1,a0
   146a0:	00071663          	bnez	a4,146ac <eneg+0x2c>
   146a4:	fb9ff0ef          	jal	ra,1465c <eisnan.part.0>
   146a8:	00051863          	bnez	a0,146b8 <eneg+0x38>
   146ac:	ffff87b7          	lui	a5,0xffff8
   146b0:	00f44433          	xor	s0,s0,a5
   146b4:	00849923          	sh	s0,18(s1)
   146b8:	00c12083          	lw	ra,12(sp)
   146bc:	00812403          	lw	s0,8(sp)
   146c0:	00412483          	lw	s1,4(sp)
   146c4:	01010113          	addi	sp,sp,16
   146c8:	00008067          	ret

000146cc <eisneg>:
   146cc:	ff010113          	addi	sp,sp,-16
   146d0:	00812423          	sw	s0,8(sp)
   146d4:	01255403          	lhu	s0,18(a0)
   146d8:	00112623          	sw	ra,12(sp)
   146dc:	fff44793          	not	a5,s0
   146e0:	01179713          	slli	a4,a5,0x11
   146e4:	00071863          	bnez	a4,146f4 <eisneg+0x28>
   146e8:	f75ff0ef          	jal	ra,1465c <eisnan.part.0>
   146ec:	00000793          	li	a5,0
   146f0:	00051463          	bnez	a0,146f8 <eisneg+0x2c>
   146f4:	00f45793          	srli	a5,s0,0xf
   146f8:	00c12083          	lw	ra,12(sp)
   146fc:	00812403          	lw	s0,8(sp)
   14700:	00078513          	mv	a0,a5
   14704:	01010113          	addi	sp,sp,16
   14708:	00008067          	ret

0001470c <emovi>:
   1470c:	01255783          	lhu	a5,18(a0)
   14710:	ff010113          	addi	sp,sp,-16
   14714:	00812423          	sw	s0,8(sp)
   14718:	00f7d793          	srli	a5,a5,0xf
   1471c:	00912223          	sw	s1,4(sp)
   14720:	00112623          	sw	ra,12(sp)
   14724:	01212023          	sw	s2,0(sp)
   14728:	40f007b3          	neg	a5,a5
   1472c:	00f59023          	sh	a5,0(a1)
   14730:	01255783          	lhu	a5,18(a0)
   14734:	000086b7          	lui	a3,0x8
   14738:	fff68693          	addi	a3,a3,-1 # 7fff <register_fini-0x8075>
   1473c:	00f6f7b3          	and	a5,a3,a5
   14740:	00f59123          	sh	a5,2(a1)
   14744:	00050493          	mv	s1,a0
   14748:	01050413          	addi	s0,a0,16
   1474c:	04d78063          	beq	a5,a3,1478c <emovi+0x80>
   14750:	00658793          	addi	a5,a1,6
   14754:	00059223          	sh	zero,4(a1)
   14758:	ffe50513          	addi	a0,a0,-2
   1475c:	ffe40413          	addi	s0,s0,-2
   14760:	00245703          	lhu	a4,2(s0)
   14764:	00278793          	addi	a5,a5,2 # ffff8002 <__BSS_END__+0xfffd151a>
   14768:	fee79f23          	sh	a4,-2(a5)
   1476c:	fea418e3          	bne	s0,a0,1475c <emovi+0x50>
   14770:	00059c23          	sh	zero,24(a1)
   14774:	00c12083          	lw	ra,12(sp)
   14778:	00812403          	lw	s0,8(sp)
   1477c:	00412483          	lw	s1,4(sp)
   14780:	00012903          	lw	s2,0(sp)
   14784:	01010113          	addi	sp,sp,16
   14788:	00008067          	ret
   1478c:	01255703          	lhu	a4,18(a0)
   14790:	00058913          	mv	s2,a1
   14794:	00e7f733          	and	a4,a5,a4
   14798:	02f71863          	bne	a4,a5,147c8 <emovi+0xbc>
   1479c:	ec1ff0ef          	jal	ra,1465c <eisnan.part.0>
   147a0:	02050463          	beqz	a0,147c8 <emovi+0xbc>
   147a4:	00690713          	addi	a4,s2,6
   147a8:	00091223          	sh	zero,4(s2)
   147ac:	ffc48793          	addi	a5,s1,-4
   147b0:	ffe40413          	addi	s0,s0,-2
   147b4:	00245683          	lhu	a3,2(s0)
   147b8:	00270713          	addi	a4,a4,2
   147bc:	fed71f23          	sh	a3,-2(a4)
   147c0:	fe8798e3          	bne	a5,s0,147b0 <emovi+0xa4>
   147c4:	fb1ff06f          	j	14774 <emovi+0x68>
   147c8:	00490793          	addi	a5,s2,4
   147cc:	01a90593          	addi	a1,s2,26
   147d0:	00278793          	addi	a5,a5,2
   147d4:	fe079f23          	sh	zero,-2(a5)
   147d8:	fef59ce3          	bne	a1,a5,147d0 <emovi+0xc4>
   147dc:	00c12083          	lw	ra,12(sp)
   147e0:	00812403          	lw	s0,8(sp)
   147e4:	00412483          	lw	s1,4(sp)
   147e8:	00012903          	lw	s2,0(sp)
   147ec:	01010113          	addi	sp,sp,16
   147f0:	00008067          	ret

000147f4 <ecmp>:
   147f4:	01255783          	lhu	a5,18(a0)
   147f8:	fb010113          	addi	sp,sp,-80
   147fc:	04812423          	sw	s0,72(sp)
   14800:	fff7c793          	not	a5,a5
   14804:	04912223          	sw	s1,68(sp)
   14808:	04112623          	sw	ra,76(sp)
   1480c:	01179713          	slli	a4,a5,0x11
   14810:	00050493          	mv	s1,a0
   14814:	00058413          	mv	s0,a1
   14818:	00071663          	bnez	a4,14824 <ecmp+0x30>
   1481c:	e41ff0ef          	jal	ra,1465c <eisnan.part.0>
   14820:	08051263          	bnez	a0,148a4 <ecmp+0xb0>
   14824:	01245783          	lhu	a5,18(s0)
   14828:	fff7c793          	not	a5,a5
   1482c:	01179713          	slli	a4,a5,0x11
   14830:	06070463          	beqz	a4,14898 <ecmp+0xa4>
   14834:	00810593          	addi	a1,sp,8
   14838:	00048513          	mv	a0,s1
   1483c:	ed1ff0ef          	jal	ra,1470c <emovi>
   14840:	02410593          	addi	a1,sp,36
   14844:	00040513          	mv	a0,s0
   14848:	ec5ff0ef          	jal	ra,1470c <emovi>
   1484c:	00815583          	lhu	a1,8(sp)
   14850:	02415503          	lhu	a0,36(sp)
   14854:	04b50c63          	beq	a0,a1,148ac <ecmp+0xb8>
   14858:	00a10793          	addi	a5,sp,10
   1485c:	02610713          	addi	a4,sp,38
   14860:	02010613          	addi	a2,sp,32
   14864:	0007d683          	lhu	a3,0(a5)
   14868:	00278793          	addi	a5,a5,2
   1486c:	08069a63          	bnez	a3,14900 <ecmp+0x10c>
   14870:	00075683          	lhu	a3,0(a4)
   14874:	00270713          	addi	a4,a4,2
   14878:	08069463          	bnez	a3,14900 <ecmp+0x10c>
   1487c:	fec794e3          	bne	a5,a2,14864 <ecmp+0x70>
   14880:	00000513          	li	a0,0
   14884:	04c12083          	lw	ra,76(sp)
   14888:	04812403          	lw	s0,72(sp)
   1488c:	04412483          	lw	s1,68(sp)
   14890:	05010113          	addi	sp,sp,80
   14894:	00008067          	ret
   14898:	00040513          	mv	a0,s0
   1489c:	dc1ff0ef          	jal	ra,1465c <eisnan.part.0>
   148a0:	f8050ae3          	beqz	a0,14834 <ecmp+0x40>
   148a4:	ffe00513          	li	a0,-2
   148a8:	fddff06f          	j	14884 <ecmp+0x90>
   148ac:	00a10713          	addi	a4,sp,10
   148b0:	02610793          	addi	a5,sp,38
   148b4:	00278793          	addi	a5,a5,2
   148b8:	00270713          	addi	a4,a4,2
   148bc:	00153513          	seqz	a0,a0
   148c0:	ffe75603          	lhu	a2,-2(a4)
   148c4:	ffe7d683          	lhu	a3,-2(a5)
   148c8:	40a00533          	neg	a0,a0
   148cc:	00257513          	andi	a0,a0,2
   148d0:	fff50513          	addi	a0,a0,-1
   148d4:	03c10593          	addi	a1,sp,60
   148d8:	00d61e63          	bne	a2,a3,148f4 <ecmp+0x100>
   148dc:	fab782e3          	beq	a5,a1,14880 <ecmp+0x8c>
   148e0:	00278793          	addi	a5,a5,2
   148e4:	00270713          	addi	a4,a4,2
   148e8:	ffe75603          	lhu	a2,-2(a4)
   148ec:	ffe7d683          	lhu	a3,-2(a5)
   148f0:	fed606e3          	beq	a2,a3,148dc <ecmp+0xe8>
   148f4:	f8c6e8e3          	bltu	a3,a2,14884 <ecmp+0x90>
   148f8:	40a00533          	neg	a0,a0
   148fc:	f89ff06f          	j	14884 <ecmp+0x90>
   14900:	00100513          	li	a0,1
   14904:	f80580e3          	beqz	a1,14884 <ecmp+0x90>
   14908:	fff00513          	li	a0,-1
   1490c:	f79ff06f          	j	14884 <ecmp+0x90>

00014910 <eisinf.part.1>:
   14910:	ff010113          	addi	sp,sp,-16
   14914:	00112623          	sw	ra,12(sp)
   14918:	d45ff0ef          	jal	ra,1465c <eisnan.part.0>
   1491c:	00c12083          	lw	ra,12(sp)
   14920:	00153513          	seqz	a0,a0
   14924:	01010113          	addi	sp,sp,16
   14928:	00008067          	ret

0001492c <eshift.part.3>:
   1492c:	ff010113          	addi	sp,sp,-16
   14930:	00812423          	sw	s0,8(sp)
   14934:	01212023          	sw	s2,0(sp)
   14938:	00112623          	sw	ra,12(sp)
   1493c:	00912223          	sw	s1,4(sp)
   14940:	00058913          	mv	s2,a1
   14944:	00050413          	mv	s0,a0
   14948:	0a05c263          	bltz	a1,149ec <eshift.part.3+0xc0>
   1494c:	00f00793          	li	a5,15
   14950:	00058613          	mv	a2,a1
   14954:	00450513          	addi	a0,a0,4
   14958:	01840693          	addi	a3,s0,24
   1495c:	00f00593          	li	a1,15
   14960:	0327d463          	bge	a5,s2,14988 <eshift.part.3+0x5c>
   14964:	00050793          	mv	a5,a0
   14968:	00278793          	addi	a5,a5,2
   1496c:	0007d703          	lhu	a4,0(a5)
   14970:	fee79f23          	sh	a4,-2(a5)
   14974:	fed79ae3          	bne	a5,a3,14968 <eshift.part.3+0x3c>
   14978:	00041c23          	sh	zero,24(s0)
   1497c:	ff060613          	addi	a2,a2,-16
   14980:	fec5c2e3          	blt	a1,a2,14964 <eshift.part.3+0x38>
   14984:	00f97913          	andi	s2,s2,15
   14988:	00700793          	li	a5,7
   1498c:	0327d863          	bge	a5,s2,149bc <eshift.part.3+0x90>
   14990:	01840793          	addi	a5,s0,24
   14994:	00240593          	addi	a1,s0,2
   14998:	00000713          	li	a4,0
   1499c:	0007d683          	lhu	a3,0(a5)
   149a0:	ffe78793          	addi	a5,a5,-2
   149a4:	00869613          	slli	a2,a3,0x8
   149a8:	00c76733          	or	a4,a4,a2
   149ac:	00e79123          	sh	a4,2(a5)
   149b0:	0086d713          	srli	a4,a3,0x8
   149b4:	feb794e3          	bne	a5,a1,1499c <eshift.part.3+0x70>
   149b8:	ff890913          	addi	s2,s2,-8
   149bc:	00090a63          	beqz	s2,149d0 <eshift.part.3+0xa4>
   149c0:	fff90913          	addi	s2,s2,-1
   149c4:	00040513          	mv	a0,s0
   149c8:	b45ff0ef          	jal	ra,1450c <eshup1>
   149cc:	fe091ae3          	bnez	s2,149c0 <eshift.part.3+0x94>
   149d0:	00c12083          	lw	ra,12(sp)
   149d4:	00812403          	lw	s0,8(sp)
   149d8:	00412483          	lw	s1,4(sp)
   149dc:	00012903          	lw	s2,0(sp)
   149e0:	00000513          	li	a0,0
   149e4:	01010113          	addi	sp,sp,16
   149e8:	00008067          	ret
   149ec:	ff100793          	li	a5,-15
   149f0:	40b004b3          	neg	s1,a1
   149f4:	0cf5d463          	bge	a1,a5,14abc <eshift.part.3+0x190>
   149f8:	01850593          	addi	a1,a0,24
   149fc:	00000913          	li	s2,0
   14a00:	00450693          	addi	a3,a0,4
   14a04:	00f00613          	li	a2,15
   14a08:	01845703          	lhu	a4,24(s0)
   14a0c:	00058793          	mv	a5,a1
   14a10:	00e96933          	or	s2,s2,a4
   14a14:	ffe78793          	addi	a5,a5,-2
   14a18:	0007d703          	lhu	a4,0(a5)
   14a1c:	00e79123          	sh	a4,2(a5)
   14a20:	fed79ae3          	bne	a5,a3,14a14 <eshift.part.3+0xe8>
   14a24:	00041223          	sh	zero,4(s0)
   14a28:	ff048493          	addi	s1,s1,-16
   14a2c:	fc964ee3          	blt	a2,s1,14a08 <eshift.part.3+0xdc>
   14a30:	00700793          	li	a5,7
   14a34:	0497d663          	bge	a5,s1,14a80 <eshift.part.3+0x154>
   14a38:	01091913          	slli	s2,s2,0x10
   14a3c:	41095913          	srai	s2,s2,0x10
   14a40:	01844783          	lbu	a5,24(s0)
   14a44:	01a40593          	addi	a1,s0,26
   14a48:	00000713          	li	a4,0
   14a4c:	00f96933          	or	s2,s2,a5
   14a50:	01091913          	slli	s2,s2,0x10
   14a54:	01095913          	srli	s2,s2,0x10
   14a58:	0006d783          	lhu	a5,0(a3)
   14a5c:	00268693          	addi	a3,a3,2
   14a60:	0087d613          	srli	a2,a5,0x8
   14a64:	00c76733          	or	a4,a4,a2
   14a68:	00879793          	slli	a5,a5,0x8
   14a6c:	fee69f23          	sh	a4,-2(a3)
   14a70:	01079713          	slli	a4,a5,0x10
   14a74:	01075713          	srli	a4,a4,0x10
   14a78:	feb690e3          	bne	a3,a1,14a58 <eshift.part.3+0x12c>
   14a7c:	ff848493          	addi	s1,s1,-8
   14a80:	02048063          	beqz	s1,14aa0 <eshift.part.3+0x174>
   14a84:	01845783          	lhu	a5,24(s0)
   14a88:	fff48493          	addi	s1,s1,-1
   14a8c:	00040513          	mv	a0,s0
   14a90:	0017f793          	andi	a5,a5,1
   14a94:	0127e933          	or	s2,a5,s2
   14a98:	a0dff0ef          	jal	ra,144a4 <eshdn1>
   14a9c:	fe0494e3          	bnez	s1,14a84 <eshift.part.3+0x158>
   14aa0:	00c12083          	lw	ra,12(sp)
   14aa4:	00812403          	lw	s0,8(sp)
   14aa8:	01203533          	snez	a0,s2
   14aac:	00412483          	lw	s1,4(sp)
   14ab0:	00012903          	lw	s2,0(sp)
   14ab4:	01010113          	addi	sp,sp,16
   14ab8:	00008067          	ret
   14abc:	ff900793          	li	a5,-7
   14ac0:	00f5c663          	blt	a1,a5,14acc <eshift.part.3+0x1a0>
   14ac4:	00000913          	li	s2,0
   14ac8:	fbdff06f          	j	14a84 <eshift.part.3+0x158>
   14acc:	00000913          	li	s2,0
   14ad0:	00440693          	addi	a3,s0,4
   14ad4:	f6dff06f          	j	14a40 <eshift.part.3+0x114>

00014ad8 <enormlz>:
   14ad8:	00455783          	lhu	a5,4(a0)
   14adc:	ff010113          	addi	sp,sp,-16
   14ae0:	00912223          	sw	s1,4(sp)
   14ae4:	00112623          	sw	ra,12(sp)
   14ae8:	00812423          	sw	s0,8(sp)
   14aec:	01212023          	sw	s2,0(sp)
   14af0:	00050493          	mv	s1,a0
   14af4:	0c079c63          	bnez	a5,14bcc <enormlz+0xf4>
   14af8:	00655703          	lhu	a4,6(a0)
   14afc:	00000413          	li	s0,0
   14b00:	01071793          	slli	a5,a4,0x10
   14b04:	4107d793          	srai	a5,a5,0x10
   14b08:	0a07c463          	bltz	a5,14bb0 <enormlz+0xd8>
   14b0c:	01a50693          	addi	a3,a0,26
   14b10:	0a000613          	li	a2,160
   14b14:	02071863          	bnez	a4,14b44 <enormlz+0x6c>
   14b18:	00648793          	addi	a5,s1,6
   14b1c:	0080006f          	j	14b24 <enormlz+0x4c>
   14b20:	0007d703          	lhu	a4,0(a5)
   14b24:	00278793          	addi	a5,a5,2
   14b28:	fee79e23          	sh	a4,-4(a5)
   14b2c:	fef69ae3          	bne	a3,a5,14b20 <enormlz+0x48>
   14b30:	00049c23          	sh	zero,24(s1)
   14b34:	01040413          	addi	s0,s0,16
   14b38:	06c40c63          	beq	s0,a2,14bb0 <enormlz+0xd8>
   14b3c:	0064d703          	lhu	a4,6(s1)
   14b40:	fc070ce3          	beqz	a4,14b18 <enormlz+0x40>
   14b44:	f0077793          	andi	a5,a4,-256
   14b48:	04079063          	bnez	a5,14b88 <enormlz+0xb0>
   14b4c:	01848513          	addi	a0,s1,24
   14b50:	00248593          	addi	a1,s1,2
   14b54:	00000713          	li	a4,0
   14b58:	00050793          	mv	a5,a0
   14b5c:	0007d683          	lhu	a3,0(a5)
   14b60:	ffe78793          	addi	a5,a5,-2
   14b64:	00869613          	slli	a2,a3,0x8
   14b68:	00c76733          	or	a4,a4,a2
   14b6c:	00e79123          	sh	a4,2(a5)
   14b70:	0086d713          	srli	a4,a3,0x8
   14b74:	fef594e3          	bne	a1,a5,14b5c <enormlz+0x84>
   14b78:	0064d703          	lhu	a4,6(s1)
   14b7c:	00840413          	addi	s0,s0,8
   14b80:	f0077793          	andi	a5,a4,-256
   14b84:	fc0788e3          	beqz	a5,14b54 <enormlz+0x7c>
   14b88:	0a000913          	li	s2,160
   14b8c:	0140006f          	j	14ba0 <enormlz+0xc8>
   14b90:	00140413          	addi	s0,s0,1
   14b94:	979ff0ef          	jal	ra,1450c <eshup1>
   14b98:	00894c63          	blt	s2,s0,14bb0 <enormlz+0xd8>
   14b9c:	0064d703          	lhu	a4,6(s1)
   14ba0:	01071713          	slli	a4,a4,0x10
   14ba4:	41075713          	srai	a4,a4,0x10
   14ba8:	00048513          	mv	a0,s1
   14bac:	fe0752e3          	bgez	a4,14b90 <enormlz+0xb8>
   14bb0:	00040513          	mv	a0,s0
   14bb4:	00c12083          	lw	ra,12(sp)
   14bb8:	00812403          	lw	s0,8(sp)
   14bbc:	00412483          	lw	s1,4(sp)
   14bc0:	00012903          	lw	s2,0(sp)
   14bc4:	01010113          	addi	sp,sp,16
   14bc8:	00008067          	ret
   14bcc:	f007f713          	andi	a4,a5,-256
   14bd0:	00000413          	li	s0,0
   14bd4:	04071063          	bnez	a4,14c14 <enormlz+0x13c>
   14bd8:	f6f00913          	li	s2,-145
   14bdc:	0140006f          	j	14bf0 <enormlz+0x118>
   14be0:	fff40413          	addi	s0,s0,-1
   14be4:	8c1ff0ef          	jal	ra,144a4 <eshdn1>
   14be8:	fd2404e3          	beq	s0,s2,14bb0 <enormlz+0xd8>
   14bec:	0044d783          	lhu	a5,4(s1)
   14bf0:	00048513          	mv	a0,s1
   14bf4:	fe0796e3          	bnez	a5,14be0 <enormlz+0x108>
   14bf8:	00040513          	mv	a0,s0
   14bfc:	00c12083          	lw	ra,12(sp)
   14c00:	00812403          	lw	s0,8(sp)
   14c04:	00412483          	lw	s1,4(sp)
   14c08:	00012903          	lw	s2,0(sp)
   14c0c:	01010113          	addi	sp,sp,16
   14c10:	00008067          	ret
   14c14:	00450693          	addi	a3,a0,4
   14c18:	01a50593          	addi	a1,a0,26
   14c1c:	00000713          	li	a4,0
   14c20:	0080006f          	j	14c28 <enormlz+0x150>
   14c24:	0006d783          	lhu	a5,0(a3)
   14c28:	0087d613          	srli	a2,a5,0x8
   14c2c:	00c76733          	or	a4,a4,a2
   14c30:	00879793          	slli	a5,a5,0x8
   14c34:	00e69023          	sh	a4,0(a3)
   14c38:	01079713          	slli	a4,a5,0x10
   14c3c:	00268693          	addi	a3,a3,2
   14c40:	01075713          	srli	a4,a4,0x10
   14c44:	feb690e3          	bne	a3,a1,14c24 <enormlz+0x14c>
   14c48:	0044d783          	lhu	a5,4(s1)
   14c4c:	ff800413          	li	s0,-8
   14c50:	f89ff06f          	j	14bd8 <enormlz+0x100>

00014c54 <emdnorm>:
   14c54:	fe010113          	addi	sp,sp,-32
   14c58:	00812c23          	sw	s0,24(sp)
   14c5c:	00912a23          	sw	s1,20(sp)
   14c60:	01212823          	sw	s2,16(sp)
   14c64:	01312623          	sw	s3,12(sp)
   14c68:	01412423          	sw	s4,8(sp)
   14c6c:	01512223          	sw	s5,4(sp)
   14c70:	00068913          	mv	s2,a3
   14c74:	00078493          	mv	s1,a5
   14c78:	00112e23          	sw	ra,28(sp)
   14c7c:	00050413          	mv	s0,a0
   14c80:	00058993          	mv	s3,a1
   14c84:	00060a13          	mv	s4,a2
   14c88:	00070a93          	mv	s5,a4
   14c8c:	e4dff0ef          	jal	ra,14ad8 <enormlz>
   14c90:	09000793          	li	a5,144
   14c94:	40a90933          	sub	s2,s2,a0
   14c98:	06a7de63          	bge	a5,a0,14d14 <emdnorm+0xc0>
   14c9c:	000087b7          	lui	a5,0x8
   14ca0:	ffe78793          	addi	a5,a5,-2 # 7ffe <register_fini-0x8076>
   14ca4:	2127da63          	bge	a5,s2,14eb8 <emdnorm+0x264>
   14ca8:	1e0a8463          	beqz	s5,14e90 <emdnorm+0x23c>
   14cac:	0044a503          	lw	a0,4(s1)
   14cb0:	0004a783          	lw	a5,0(s1)
   14cb4:	0ea78a63          	beq	a5,a0,14da8 <emdnorm+0x154>
   14cb8:	01a48713          	addi	a4,s1,26
   14cbc:	03448793          	addi	a5,s1,52
   14cc0:	00270713          	addi	a4,a4,2
   14cc4:	fe071f23          	sh	zero,-2(a4)
   14cc8:	fef71ce3          	bne	a4,a5,14cc0 <emdnorm+0x6c>
   14ccc:	03800793          	li	a5,56
   14cd0:	36f50063          	beq	a0,a5,15030 <emdnorm+0x3dc>
   14cd4:	06a7d263          	bge	a5,a0,14d38 <emdnorm+0xe4>
   14cd8:	04000793          	li	a5,64
   14cdc:	2ef50a63          	beq	a0,a5,14fd0 <emdnorm+0x37c>
   14ce0:	07100793          	li	a5,113
   14ce4:	30f51c63          	bne	a0,a5,14ffc <emdnorm+0x3a8>
   14ce8:	400087b7          	lui	a5,0x40008
   14cec:	fff78793          	addi	a5,a5,-1 # 40007fff <__BSS_END__+0x3ffe1517>
   14cf0:	00a00713          	li	a4,10
   14cf4:	00f4aa23          	sw	a5,20(s1)
   14cf8:	ffff87b7          	lui	a5,0xffff8
   14cfc:	00e4a423          	sw	a4,8(s1)
   14d00:	00f49c23          	sh	a5,24(s1)
   14d04:	00e4a623          	sw	a4,12(s1)
   14d08:	00a00793          	li	a5,10
   14d0c:	00008737          	lui	a4,0x8
   14d10:	0600006f          	j	14d70 <emdnorm+0x11c>
   14d14:	1e095263          	bgez	s2,14ef8 <emdnorm+0x2a4>
   14d18:	f7000793          	li	a5,-144
   14d1c:	1af95a63          	bge	s2,a5,14ed0 <emdnorm+0x27c>
   14d20:	00240793          	addi	a5,s0,2
   14d24:	01a40413          	addi	s0,s0,26
   14d28:	00278793          	addi	a5,a5,2 # ffff8002 <__BSS_END__+0xfffd151a>
   14d2c:	fe079f23          	sh	zero,-2(a5)
   14d30:	fe879ce3          	bne	a5,s0,14d28 <emdnorm+0xd4>
   14d34:	1380006f          	j	14e6c <emdnorm+0x218>
   14d38:	01800793          	li	a5,24
   14d3c:	26f50463          	beq	a0,a5,14fa4 <emdnorm+0x350>
   14d40:	03500793          	li	a5,53
   14d44:	2af51c63          	bne	a0,a5,14ffc <emdnorm+0x3a8>
   14d48:	00001737          	lui	a4,0x1
   14d4c:	040007b7          	lui	a5,0x4000
   14d50:	00600693          	li	a3,6
   14d54:	7ff78793          	addi	a5,a5,2047 # 40007ff <__BSS_END__+0x3fd9d17>
   14d58:	80070713          	addi	a4,a4,-2048 # 800 <register_fini-0xf874>
   14d5c:	00f4aa23          	sw	a5,20(s1)
   14d60:	00d4a423          	sw	a3,8(s1)
   14d64:	00e49c23          	sh	a4,24(s1)
   14d68:	00d4a623          	sw	a3,12(s1)
   14d6c:	00600793          	li	a5,6
   14d70:	00878793          	addi	a5,a5,8
   14d74:	00179793          	slli	a5,a5,0x1
   14d78:	00f487b3          	add	a5,s1,a5
   14d7c:	00e79523          	sh	a4,10(a5)
   14d80:	00a4a023          	sw	a0,0(s1)
   14d84:	03204263          	bgtz	s2,14da8 <emdnorm+0x154>
   14d88:	09000793          	li	a5,144
   14d8c:	1ef50863          	beq	a0,a5,14f7c <emdnorm+0x328>
   14d90:	01845783          	lhu	a5,24(s0)
   14d94:	00040513          	mv	a0,s0
   14d98:	0017f793          	andi	a5,a5,1
   14d9c:	00f9e9b3          	or	s3,s3,a5
   14da0:	f04ff0ef          	jal	ra,144a4 <eshdn1>
   14da4:	0044a503          	lw	a0,4(s1)
   14da8:	0084a583          	lw	a1,8(s1)
   14dac:	0144d783          	lhu	a5,20(s1)
   14db0:	08f00813          	li	a6,143
   14db4:	00159613          	slli	a2,a1,0x1
   14db8:	00c40633          	add	a2,s0,a2
   14dbc:	00065703          	lhu	a4,0(a2)
   14dc0:	00f776b3          	and	a3,a4,a5
   14dc4:	02a84a63          	blt	a6,a0,14df8 <emdnorm+0x1a4>
   14dc8:	00b00813          	li	a6,11
   14dcc:	02b84663          	blt	a6,a1,14df8 <emdnorm+0x1a4>
   14dd0:	00060713          	mv	a4,a2
   14dd4:	01840593          	addi	a1,s0,24
   14dd8:	00275783          	lhu	a5,2(a4)
   14ddc:	00078463          	beqz	a5,14de4 <emdnorm+0x190>
   14de0:	0016e693          	ori	a3,a3,1
   14de4:	00071123          	sh	zero,2(a4)
   14de8:	00270713          	addi	a4,a4,2
   14dec:	fee596e3          	bne	a1,a4,14dd8 <emdnorm+0x184>
   14df0:	00065703          	lhu	a4,0(a2)
   14df4:	0144d783          	lhu	a5,20(s1)
   14df8:	fff7c793          	not	a5,a5
   14dfc:	00e7f7b3          	and	a5,a5,a4
   14e00:	00f61023          	sh	a5,0(a2)
   14e04:	0164d783          	lhu	a5,22(s1)
   14e08:	00d7f733          	and	a4,a5,a3
   14e0c:	04070063          	beqz	a4,14e4c <emdnorm+0x1f8>
   14e10:	12d78263          	beq	a5,a3,14f34 <emdnorm+0x2e0>
   14e14:	03248613          	addi	a2,s1,50
   14e18:	01840713          	addi	a4,s0,24
   14e1c:	01c48493          	addi	s1,s1,28
   14e20:	00000693          	li	a3,0
   14e24:	00065783          	lhu	a5,0(a2)
   14e28:	00075583          	lhu	a1,0(a4)
   14e2c:	ffe70713          	addi	a4,a4,-2
   14e30:	ffe60613          	addi	a2,a2,-2
   14e34:	00b787b3          	add	a5,a5,a1
   14e38:	00d787b3          	add	a5,a5,a3
   14e3c:	00f71123          	sh	a5,2(a4)
   14e40:	0107d793          	srli	a5,a5,0x10
   14e44:	0017f693          	andi	a3,a5,1
   14e48:	fc961ee3          	bne	a2,s1,14e24 <emdnorm+0x1d0>
   14e4c:	11205663          	blez	s2,14f58 <emdnorm+0x304>
   14e50:	00445783          	lhu	a5,4(s0)
   14e54:	0a079c63          	bnez	a5,14f0c <emdnorm+0x2b8>
   14e58:	000087b7          	lui	a5,0x8
   14e5c:	00041c23          	sh	zero,24(s0)
   14e60:	ffe78793          	addi	a5,a5,-2 # 7ffe <register_fini-0x8076>
   14e64:	0327c863          	blt	a5,s2,14e94 <emdnorm+0x240>
   14e68:	01241123          	sh	s2,2(s0)
   14e6c:	01c12083          	lw	ra,28(sp)
   14e70:	01812403          	lw	s0,24(sp)
   14e74:	01412483          	lw	s1,20(sp)
   14e78:	01012903          	lw	s2,16(sp)
   14e7c:	00c12983          	lw	s3,12(sp)
   14e80:	00812a03          	lw	s4,8(sp)
   14e84:	00412a83          	lw	s5,4(sp)
   14e88:	02010113          	addi	sp,sp,32
   14e8c:	00008067          	ret
   14e90:	00041c23          	sh	zero,24(s0)
   14e94:	ffff87b7          	lui	a5,0xffff8
   14e98:	fff7c793          	not	a5,a5
   14e9c:	00f41123          	sh	a5,2(s0)
   14ea0:	00440793          	addi	a5,s0,4
   14ea4:	01840413          	addi	s0,s0,24
   14ea8:	00079023          	sh	zero,0(a5) # ffff8000 <__BSS_END__+0xfffd1518>
   14eac:	00278793          	addi	a5,a5,2
   14eb0:	fef41ce3          	bne	s0,a5,14ea8 <emdnorm+0x254>
   14eb4:	fb9ff06f          	j	14e6c <emdnorm+0x218>
   14eb8:	00240793          	addi	a5,s0,2
   14ebc:	01a40413          	addi	s0,s0,26
   14ec0:	00278793          	addi	a5,a5,2
   14ec4:	fe079f23          	sh	zero,-2(a5)
   14ec8:	fe879ce3          	bne	a5,s0,14ec0 <emdnorm+0x26c>
   14ecc:	fa1ff06f          	j	14e6c <emdnorm+0x218>
   14ed0:	00090593          	mv	a1,s2
   14ed4:	00040513          	mv	a0,s0
   14ed8:	a55ff0ef          	jal	ra,1492c <eshift.part.3>
   14edc:	00050463          	beqz	a0,14ee4 <emdnorm+0x290>
   14ee0:	00100993          	li	s3,1
   14ee4:	0a0a8a63          	beqz	s5,14f98 <emdnorm+0x344>
   14ee8:	0044a503          	lw	a0,4(s1)
   14eec:	0004a783          	lw	a5,0(s1)
   14ef0:	dca794e3          	bne	a5,a0,14cb8 <emdnorm+0x64>
   14ef4:	e95ff06f          	j	14d88 <emdnorm+0x134>
   14ef8:	f60a80e3          	beqz	s5,14e58 <emdnorm+0x204>
   14efc:	0044a503          	lw	a0,4(s1)
   14f00:	0004a783          	lw	a5,0(s1)
   14f04:	daf51ae3          	bne	a0,a5,14cb8 <emdnorm+0x64>
   14f08:	e7dff06f          	j	14d84 <emdnorm+0x130>
   14f0c:	00040513          	mv	a0,s0
   14f10:	d94ff0ef          	jal	ra,144a4 <eshdn1>
   14f14:	000087b7          	lui	a5,0x8
   14f18:	00190913          	addi	s2,s2,1
   14f1c:	00041c23          	sh	zero,24(s0)
   14f20:	ffe78793          	addi	a5,a5,-2 # 7ffe <register_fini-0x8076>
   14f24:	f727c8e3          	blt	a5,s2,14e94 <emdnorm+0x240>
   14f28:	f40950e3          	bgez	s2,14e68 <emdnorm+0x214>
   14f2c:	00041123          	sh	zero,2(s0)
   14f30:	f3dff06f          	j	14e6c <emdnorm+0x218>
   14f34:	0e099a63          	bnez	s3,15028 <emdnorm+0x3d4>
   14f38:	00c4a783          	lw	a5,12(s1)
   14f3c:	0184d703          	lhu	a4,24(s1)
   14f40:	00179793          	slli	a5,a5,0x1
   14f44:	00f407b3          	add	a5,s0,a5
   14f48:	0007d783          	lhu	a5,0(a5)
   14f4c:	00e7f7b3          	and	a5,a5,a4
   14f50:	ec0792e3          	bnez	a5,14e14 <emdnorm+0x1c0>
   14f54:	ef204ee3          	bgtz	s2,14e50 <emdnorm+0x1fc>
   14f58:	09000793          	li	a5,144
   14f5c:	00f50663          	beq	a0,a5,14f68 <emdnorm+0x314>
   14f60:	00040513          	mv	a0,s0
   14f64:	da8ff0ef          	jal	ra,1450c <eshup1>
   14f68:	00445783          	lhu	a5,4(s0)
   14f6c:	fa0790e3          	bnez	a5,14f0c <emdnorm+0x2b8>
   14f70:	00041c23          	sh	zero,24(s0)
   14f74:	fa094ce3          	bltz	s2,14f2c <emdnorm+0x2d8>
   14f78:	ef1ff06f          	j	14e68 <emdnorm+0x214>
   14f7c:	0084a603          	lw	a2,8(s1)
   14f80:	0144d783          	lhu	a5,20(s1)
   14f84:	00161613          	slli	a2,a2,0x1
   14f88:	00c40633          	add	a2,s0,a2
   14f8c:	00065703          	lhu	a4,0(a2)
   14f90:	00e7f6b3          	and	a3,a5,a4
   14f94:	e65ff06f          	j	14df8 <emdnorm+0x1a4>
   14f98:	00041c23          	sh	zero,24(s0)
   14f9c:	00041123          	sh	zero,2(s0)
   14fa0:	ecdff06f          	j	14e6c <emdnorm+0x218>
   14fa4:	008007b7          	lui	a5,0x800
   14fa8:	0ff78793          	addi	a5,a5,255 # 8000ff <__BSS_END__+0x7d9617>
   14fac:	00400713          	li	a4,4
   14fb0:	00f4aa23          	sw	a5,20(s1)
   14fb4:	10000793          	li	a5,256
   14fb8:	00e4a423          	sw	a4,8(s1)
   14fbc:	00f49c23          	sh	a5,24(s1)
   14fc0:	00e4a623          	sw	a4,12(s1)
   14fc4:	00400793          	li	a5,4
   14fc8:	10000713          	li	a4,256
   14fcc:	da5ff06f          	j	14d70 <emdnorm+0x11c>
   14fd0:	00700793          	li	a5,7
   14fd4:	00f4a423          	sw	a5,8(s1)
   14fd8:	800107b7          	lui	a5,0x80010
   14fdc:	fff78793          	addi	a5,a5,-1 # 8000ffff <__BSS_END__+0x7ffe9517>
   14fe0:	00f4aa23          	sw	a5,20(s1)
   14fe4:	00100793          	li	a5,1
   14fe8:	00f49c23          	sh	a5,24(s1)
   14fec:	00600793          	li	a5,6
   14ff0:	00f4a623          	sw	a5,12(s1)
   14ff4:	00100713          	li	a4,1
   14ff8:	d79ff06f          	j	14d70 <emdnorm+0x11c>
   14ffc:	00c00793          	li	a5,12
   15000:	00f4a423          	sw	a5,8(s1)
   15004:	800107b7          	lui	a5,0x80010
   15008:	fff78793          	addi	a5,a5,-1 # 8000ffff <__BSS_END__+0x7ffe9517>
   1500c:	00f4aa23          	sw	a5,20(s1)
   15010:	00100793          	li	a5,1
   15014:	00f49c23          	sh	a5,24(s1)
   15018:	00b00793          	li	a5,11
   1501c:	00f4a623          	sw	a5,12(s1)
   15020:	00100713          	li	a4,1
   15024:	d4dff06f          	j	14d70 <emdnorm+0x11c>
   15028:	de0a06e3          	beqz	s4,14e14 <emdnorm+0x1c0>
   1502c:	e21ff06f          	j	14e4c <emdnorm+0x1f8>
   15030:	008007b7          	lui	a5,0x800
   15034:	0ff78793          	addi	a5,a5,255 # 8000ff <__BSS_END__+0x7d9617>
   15038:	00600713          	li	a4,6
   1503c:	00f4aa23          	sw	a5,20(s1)
   15040:	10000793          	li	a5,256
   15044:	00e4a423          	sw	a4,8(s1)
   15048:	00f49c23          	sh	a5,24(s1)
   1504c:	00e4a623          	sw	a4,12(s1)
   15050:	00600793          	li	a5,6
   15054:	10000713          	li	a4,256
   15058:	d19ff06f          	j	14d70 <emdnorm+0x11c>

0001505c <eiremain>:
   1505c:	fd010113          	addi	sp,sp,-48
   15060:	01312e23          	sw	s3,28(sp)
   15064:	00255983          	lhu	s3,2(a0)
   15068:	02912223          	sw	s1,36(sp)
   1506c:	00058493          	mv	s1,a1
   15070:	02112623          	sw	ra,44(sp)
   15074:	02812423          	sw	s0,40(sp)
   15078:	03212023          	sw	s2,32(sp)
   1507c:	01412c23          	sw	s4,24(sp)
   15080:	00060913          	mv	s2,a2
   15084:	01512a23          	sw	s5,20(sp)
   15088:	01612823          	sw	s6,16(sp)
   1508c:	01712623          	sw	s7,12(sp)
   15090:	01812423          	sw	s8,8(sp)
   15094:	01912223          	sw	s9,4(sp)
   15098:	01a12023          	sw	s10,0(sp)
   1509c:	00050a13          	mv	s4,a0
   150a0:	a39ff0ef          	jal	ra,14ad8 <enormlz>
   150a4:	0024d403          	lhu	s0,2(s1)
   150a8:	40a989b3          	sub	s3,s3,a0
   150ac:	00048513          	mv	a0,s1
   150b0:	a29ff0ef          	jal	ra,14ad8 <enormlz>
   150b4:	03490a93          	addi	s5,s2,52
   150b8:	40a40433          	sub	s0,s0,a0
   150bc:	04e90713          	addi	a4,s2,78
   150c0:	000a8793          	mv	a5,s5
   150c4:	00278793          	addi	a5,a5,2
   150c8:	fe079f23          	sh	zero,-2(a5)
   150cc:	fee79ce3          	bne	a5,a4,150c4 <eiremain+0x68>
   150d0:	09344a63          	blt	s0,s3,15164 <eiremain+0x108>
   150d4:	004a0b93          	addi	s7,s4,4
   150d8:	00448b13          	addi	s6,s1,4
   150dc:	fff98993          	addi	s3,s3,-1
   150e0:	01aa0c93          	addi	s9,s4,26
   150e4:	00248c13          	addi	s8,s1,2
   150e8:	000b0713          	mv	a4,s6
   150ec:	000b8793          	mv	a5,s7
   150f0:	00278793          	addi	a5,a5,2
   150f4:	00270713          	addi	a4,a4,2
   150f8:	ffe7d603          	lhu	a2,-2(a5)
   150fc:	ffe75683          	lhu	a3,-2(a4)
   15100:	0ad61a63          	bne	a2,a3,151b4 <eiremain+0x158>
   15104:	ff9796e3          	bne	a5,s9,150f0 <eiremain+0x94>
   15108:	018a0693          	addi	a3,s4,24
   1510c:	01848713          	addi	a4,s1,24
   15110:	00000613          	li	a2,0
   15114:	00075783          	lhu	a5,0(a4)
   15118:	0006d583          	lhu	a1,0(a3)
   1511c:	ffe70713          	addi	a4,a4,-2
   15120:	40c787b3          	sub	a5,a5,a2
   15124:	40b787b3          	sub	a5,a5,a1
   15128:	00f71123          	sh	a5,2(a4)
   1512c:	0107d793          	srli	a5,a5,0x10
   15130:	ffe68693          	addi	a3,a3,-2
   15134:	0017f613          	andi	a2,a5,1
   15138:	fcec1ee3          	bne	s8,a4,15114 <eiremain+0xb8>
   1513c:	00100d13          	li	s10,1
   15140:	000a8513          	mv	a0,s5
   15144:	bc8ff0ef          	jal	ra,1450c <eshup1>
   15148:	04c95783          	lhu	a5,76(s2)
   1514c:	fff40413          	addi	s0,s0,-1
   15150:	00048513          	mv	a0,s1
   15154:	00fd6d33          	or	s10,s10,a5
   15158:	05a91623          	sh	s10,76(s2)
   1515c:	bb0ff0ef          	jal	ra,1450c <eshup1>
   15160:	f93414e3          	bne	s0,s3,150e8 <eiremain+0x8c>
   15164:	00040693          	mv	a3,s0
   15168:	02812403          	lw	s0,40(sp)
   1516c:	02c12083          	lw	ra,44(sp)
   15170:	01c12983          	lw	s3,28(sp)
   15174:	01812a03          	lw	s4,24(sp)
   15178:	01412a83          	lw	s5,20(sp)
   1517c:	01012b03          	lw	s6,16(sp)
   15180:	00c12b83          	lw	s7,12(sp)
   15184:	00812c03          	lw	s8,8(sp)
   15188:	00412c83          	lw	s9,4(sp)
   1518c:	00012d03          	lw	s10,0(sp)
   15190:	00090793          	mv	a5,s2
   15194:	00048513          	mv	a0,s1
   15198:	02012903          	lw	s2,32(sp)
   1519c:	02412483          	lw	s1,36(sp)
   151a0:	00000713          	li	a4,0
   151a4:	00000613          	li	a2,0
   151a8:	00000593          	li	a1,0
   151ac:	03010113          	addi	sp,sp,48
   151b0:	aa5ff06f          	j	14c54 <emdnorm>
   151b4:	00000d13          	li	s10,0
   151b8:	f8c6e4e3          	bltu	a3,a2,15140 <eiremain+0xe4>
   151bc:	f4dff06f          	j	15108 <eiremain+0xac>

000151c0 <emovo.isra.6>:
   151c0:	00055703          	lhu	a4,0(a0)
   151c4:	00255783          	lhu	a5,2(a0)
   151c8:	00070663          	beqz	a4,151d4 <emovo.isra.6+0x14>
   151cc:	00008737          	lui	a4,0x8
   151d0:	00e7e7b3          	or	a5,a5,a4
   151d4:	00f59923          	sh	a5,18(a1)
   151d8:	00255703          	lhu	a4,2(a0)
   151dc:	000087b7          	lui	a5,0x8
   151e0:	fff78793          	addi	a5,a5,-1 # 7fff <register_fini-0x8075>
   151e4:	02f70463          	beq	a4,a5,1520c <emovo.isra.6+0x4c>
   151e8:	00650793          	addi	a5,a0,6
   151ec:	01058593          	addi	a1,a1,16
   151f0:	01850513          	addi	a0,a0,24
   151f4:	00278793          	addi	a5,a5,2
   151f8:	ffe7d703          	lhu	a4,-2(a5)
   151fc:	ffe58593          	addi	a1,a1,-2
   15200:	00e59123          	sh	a4,2(a1)
   15204:	fea798e3          	bne	a5,a0,151f4 <emovo.isra.6+0x34>
   15208:	00008067          	ret
   1520c:	00650793          	addi	a5,a0,6
   15210:	01a50513          	addi	a0,a0,26
   15214:	0007d703          	lhu	a4,0(a5)
   15218:	00278793          	addi	a5,a5,2
   1521c:	02071a63          	bnez	a4,15250 <emovo.isra.6+0x90>
   15220:	fea79ae3          	bne	a5,a0,15214 <emovo.isra.6+0x54>
   15224:	01258713          	addi	a4,a1,18
   15228:	00058793          	mv	a5,a1
   1522c:	00278793          	addi	a5,a5,2
   15230:	fe079f23          	sh	zero,-2(a5)
   15234:	fef71ce3          	bne	a4,a5,1522c <emovo.isra.6+0x6c>
   15238:	0125d783          	lhu	a5,18(a1)
   1523c:	00008737          	lui	a4,0x8
   15240:	fff70713          	addi	a4,a4,-1 # 7fff <register_fini-0x8075>
   15244:	00e7e7b3          	or	a5,a5,a4
   15248:	00f59923          	sh	a5,18(a1)
   1524c:	00008067          	ret
   15250:	01058713          	addi	a4,a1,16
   15254:	00058793          	mv	a5,a1
   15258:	00278793          	addi	a5,a5,2
   1525c:	fe079f23          	sh	zero,-2(a5)
   15260:	fef71ce3          	bne	a4,a5,15258 <emovo.isra.6+0x98>
   15264:	7fffc7b7          	lui	a5,0x7fffc
   15268:	00f5a823          	sw	a5,16(a1)
   1526c:	00008067          	ret

00015270 <emul>:
   15270:	f7010113          	addi	sp,sp,-144
   15274:	07512a23          	sw	s5,116(sp)
   15278:	01255a83          	lhu	s5,18(a0)
   1527c:	000087b7          	lui	a5,0x8
   15280:	fff78793          	addi	a5,a5,-1 # 7fff <register_fini-0x8075>
   15284:	08812423          	sw	s0,136(sp)
   15288:	08912223          	sw	s1,132(sp)
   1528c:	09212023          	sw	s2,128(sp)
   15290:	07312e23          	sw	s3,124(sp)
   15294:	07612823          	sw	s6,112(sp)
   15298:	08112623          	sw	ra,140(sp)
   1529c:	07412c23          	sw	s4,120(sp)
   152a0:	07712623          	sw	s7,108(sp)
   152a4:	07812423          	sw	s8,104(sp)
   152a8:	07912223          	sw	s9,100(sp)
   152ac:	0157fb33          	and	s6,a5,s5
   152b0:	00050493          	mv	s1,a0
   152b4:	00058913          	mv	s2,a1
   152b8:	00060413          	mv	s0,a2
   152bc:	00068993          	mv	s3,a3
   152c0:	0afb1863          	bne	s6,a5,15370 <emul+0x100>
   152c4:	b98ff0ef          	jal	ra,1465c <eisnan.part.0>
   152c8:	20051c63          	bnez	a0,154e0 <emul+0x270>
   152cc:	01295a03          	lhu	s4,18(s2)
   152d0:	014b77b3          	and	a5,s6,s4
   152d4:	23679463          	bne	a5,s6,154fc <emul+0x28c>
   152d8:	00090513          	mv	a0,s2
   152dc:	b80ff0ef          	jal	ra,1465c <eisnan.part.0>
   152e0:	0a051463          	bnez	a0,15388 <emul+0x118>
   152e4:	00048513          	mv	a0,s1
   152e8:	e28ff0ef          	jal	ra,14910 <eisinf.part.1>
   152ec:	20051e63          	bnez	a0,15508 <emul+0x298>
   152f0:	000087b7          	lui	a5,0x8
   152f4:	fff78793          	addi	a5,a5,-1 # 7fff <register_fini-0x8075>
   152f8:	0147fa33          	and	s4,a5,s4
   152fc:	010a1a13          	slli	s4,s4,0x10
   15300:	010a5a13          	srli	s4,s4,0x10
   15304:	2cfa1663          	bne	s4,a5,155d0 <emul+0x360>
   15308:	00090513          	mv	a0,s2
   1530c:	e04ff0ef          	jal	ra,14910 <eisinf.part.1>
   15310:	32051263          	bnez	a0,15634 <emul+0x3c4>
   15314:	0124d783          	lhu	a5,18(s1)
   15318:	00fa77b3          	and	a5,s4,a5
   1531c:	21478463          	beq	a5,s4,15524 <emul+0x2b4>
   15320:	00048513          	mv	a0,s1
   15324:	00c10593          	addi	a1,sp,12
   15328:	be4ff0ef          	jal	ra,1470c <emovi>
   1532c:	00090513          	mv	a0,s2
   15330:	02810593          	addi	a1,sp,40
   15334:	bd8ff0ef          	jal	ra,1470c <emovi>
   15338:	00e15483          	lhu	s1,14(sp)
   1533c:	02a15903          	lhu	s2,42(sp)
   15340:	08049a63          	bnez	s1,153d4 <emul+0x164>
   15344:	01010793          	addi	a5,sp,16
   15348:	02410693          	addi	a3,sp,36
   1534c:	2cd78063          	beq	a5,a3,1560c <emul+0x39c>
   15350:	00278793          	addi	a5,a5,2
   15354:	ffe7d703          	lhu	a4,-2(a5)
   15358:	fe070ae3          	beqz	a4,1534c <emul+0xdc>
   1535c:	00c10513          	addi	a0,sp,12
   15360:	f78ff0ef          	jal	ra,14ad8 <enormlz>
   15364:	40a004b3          	neg	s1,a0
   15368:	02a15703          	lhu	a4,42(sp)
   1536c:	06c0006f          	j	153d8 <emul+0x168>
   15370:	0125da03          	lhu	s4,18(a1)
   15374:	0147f733          	and	a4,a5,s4
   15378:	faf714e3          	bne	a4,a5,15320 <emul+0xb0>
   1537c:	00058513          	mv	a0,a1
   15380:	adcff0ef          	jal	ra,1465c <eisnan.part.0>
   15384:	f60506e3          	beqz	a0,152f0 <emul+0x80>
   15388:	01490713          	addi	a4,s2,20
   1538c:	00290913          	addi	s2,s2,2
   15390:	ffe95783          	lhu	a5,-2(s2)
   15394:	00240413          	addi	s0,s0,2
   15398:	fef41f23          	sh	a5,-2(s0)
   1539c:	fee918e3          	bne	s2,a4,1538c <emul+0x11c>
   153a0:	08c12083          	lw	ra,140(sp)
   153a4:	08812403          	lw	s0,136(sp)
   153a8:	08412483          	lw	s1,132(sp)
   153ac:	08012903          	lw	s2,128(sp)
   153b0:	07c12983          	lw	s3,124(sp)
   153b4:	07812a03          	lw	s4,120(sp)
   153b8:	07412a83          	lw	s5,116(sp)
   153bc:	07012b03          	lw	s6,112(sp)
   153c0:	06c12b83          	lw	s7,108(sp)
   153c4:	06812c03          	lw	s8,104(sp)
   153c8:	06412c83          	lw	s9,100(sp)
   153cc:	09010113          	addi	sp,sp,144
   153d0:	00008067          	ret
   153d4:	00090713          	mv	a4,s2
   153d8:	00090b13          	mv	s6,s2
   153dc:	02c10793          	addi	a5,sp,44
   153e0:	04010693          	addi	a3,sp,64
   153e4:	02071263          	bnez	a4,15408 <emul+0x198>
   153e8:	22f68c63          	beq	a3,a5,15620 <emul+0x3b0>
   153ec:	00278793          	addi	a5,a5,2
   153f0:	ffe7d703          	lhu	a4,-2(a5)
   153f4:	fe070ae3          	beqz	a4,153e8 <emul+0x178>
   153f8:	02810513          	addi	a0,sp,40
   153fc:	edcff0ef          	jal	ra,14ad8 <enormlz>
   15400:	02a15703          	lhu	a4,42(sp)
   15404:	40a90b33          	sub	s6,s2,a0
   15408:	02815783          	lhu	a5,40(sp)
   1540c:	03898a93          	addi	s5,s3,56
   15410:	02e99b23          	sh	a4,54(s3)
   15414:	02f99a23          	sh	a5,52(s3)
   15418:	04e98713          	addi	a4,s3,78
   1541c:	000a8793          	mv	a5,s5
   15420:	00079023          	sh	zero,0(a5)
   15424:	00278793          	addi	a5,a5,2
   15428:	fef71ce3          	bne	a4,a5,15420 <emul+0x1b0>
   1542c:	04c98b93          	addi	s7,s3,76
   15430:	00000a13          	li	s4,0
   15434:	02410913          	addi	s2,sp,36
   15438:	01010c93          	addi	s9,sp,16
   1543c:	04610c13          	addi	s8,sp,70
   15440:	00095503          	lhu	a0,0(s2)
   15444:	ffe90913          	addi	s2,s2,-2
   15448:	14051263          	bnez	a0,1558c <emul+0x31c>
   1544c:	04c9d703          	lhu	a4,76(s3)
   15450:	000b8793          	mv	a5,s7
   15454:	00ea6a33          	or	s4,s4,a4
   15458:	ffe78793          	addi	a5,a5,-2
   1545c:	0007d703          	lhu	a4,0(a5)
   15460:	00e79123          	sh	a4,2(a5)
   15464:	ff579ae3          	bne	a5,s5,15458 <emul+0x1e8>
   15468:	02099c23          	sh	zero,56(s3)
   1546c:	fd991ae3          	bne	s2,s9,15440 <emul+0x1d0>
   15470:	03498713          	addi	a4,s3,52
   15474:	02810793          	addi	a5,sp,40
   15478:	04210693          	addi	a3,sp,66
   1547c:	00075603          	lhu	a2,0(a4)
   15480:	00278793          	addi	a5,a5,2
   15484:	00270713          	addi	a4,a4,2
   15488:	fec79f23          	sh	a2,-2(a5)
   1548c:	fef698e3          	bne	a3,a5,1547c <emul+0x20c>
   15490:	ffffc6b7          	lui	a3,0xffffc
   15494:	016484b3          	add	s1,s1,s6
   15498:	00268693          	addi	a3,a3,2 # ffffc002 <__BSS_END__+0xfffd551a>
   1549c:	000a0593          	mv	a1,s4
   154a0:	02810513          	addi	a0,sp,40
   154a4:	00098793          	mv	a5,s3
   154a8:	04000713          	li	a4,64
   154ac:	00d486b3          	add	a3,s1,a3
   154b0:	00000613          	li	a2,0
   154b4:	fa0ff0ef          	jal	ra,14c54 <emdnorm>
   154b8:	02815703          	lhu	a4,40(sp)
   154bc:	00c15783          	lhu	a5,12(sp)
   154c0:	00040593          	mv	a1,s0
   154c4:	02810513          	addi	a0,sp,40
   154c8:	40e787b3          	sub	a5,a5,a4
   154cc:	00f037b3          	snez	a5,a5
   154d0:	40f007b3          	neg	a5,a5
   154d4:	02f11423          	sh	a5,40(sp)
   154d8:	ce9ff0ef          	jal	ra,151c0 <emovo.isra.6>
   154dc:	ec5ff06f          	j	153a0 <emul+0x130>
   154e0:	01448713          	addi	a4,s1,20
   154e4:	00248493          	addi	s1,s1,2
   154e8:	ffe4d783          	lhu	a5,-2(s1)
   154ec:	00240413          	addi	s0,s0,2
   154f0:	fef41f23          	sh	a5,-2(s0)
   154f4:	fee498e3          	bne	s1,a4,154e4 <emul+0x274>
   154f8:	ea9ff06f          	j	153a0 <emul+0x130>
   154fc:	00048513          	mv	a0,s1
